(lp0
(lp1
(lp2
(lp3
F0.9744168658674931
aF0.9584756353547887
aF1.0
aF0.9725945829663661
aF0.946125768243804
aF0.959356149154054
aF0.9597145441246581
aF0.9576548058439887
aF0.9413603371766079
aF0.9189277235935785
aF0.882901843358744
aF0.8777879037300981
aF0.8459067580429693
aF0.8064840256108956
aF0.7556563717817987
aF0.699039808361686
aF0.6303671287050385
aF0.5471161703562408
aF0.42074290356277266
aF0.39826321230678163
aF0.3495110946282352
aF0.3026181009416521
aF0.26379455060672974
aF0.230284873731357
aF0.178707169274046
aF0.1382029081998229
aF0.11465739155220453
aF0.08111205400414001
aF0.0556742475150116
aF0.038874833753529035
aF0.02750233975462242
aF0.0
aF0.040513827040117904
aF0.04433249894661795
aF0.04573522770620255
aF0.038417410040924506
aa(lp4
F0.9819004501255549
aF0.9818281563565469
aF0.9803124829945465
aF0.9723933001331128
aF0.96338896137621
aF0.9592869842945524
aF0.9595524272462377
aF0.9555657560248995
aF0.9619173244150231
aF0.9209493190147571
aF0.8902731638013562
aF0.8697457327049752
aF0.8431341161333644
aF0.8166574092449195
aF0.7574051613559103
aF0.6960165133467326
aF0.6577966970687459
aF0.5537196546406514
aF0.4730309632761732
aF0.40720063416969376
aF0.3434783016581006
aF0.3006072832900382
aF0.25934722397925486
aF0.22837782952832744
aF0.18033074027641718
aF0.1432742781150607
aF0.1308610803697155
aF0.07726436866554677
aF0.04544851209102033
aF0.038748174673567615
aF0.02990384893205724
aF0.032115205042395914
aF0.03230055063850967
aF0.06354833521465812
aF0.040593642433715924
aF0.04281334019521065
aa(lp5
F0.9765989572012096
aF0.9824569839668315
aF1.0
aF0.975844188058672
aF0.9532303504126289
aF0.9649958926240728
aF0.9594741222053322
aF0.9534689671541715
aF0.9471909995373496
aF0.9230111623266365
aF0.9050797855108501
aF0.8509125208580351
aF0.8502204004536037
aF0.8116335756308254
aF0.7602300012540444
aF0.706772188542272
aF0.6501035642431436
aF0.5940691032989287
aF0.45594586511638335
aF0.4095718249492186
aF0.35245921322114776
aF0.30914512245448833
aF0.23752615611465253
aF0.21852429559295147
aF0.17480984079449882
aF0.13069733049405274
aF0.09816036747850698
aF0.0173693034308492
aF0.07665776684428514
aF0.040757305855558694
aF0.048695604818899334
aF0.03592347559422594
aF0.04424744888918653
aF0.04248489897128148
aF0.02203261879668132
aF0.043205103754203174
aa(lp6
F0.9714287409227976
aF0.9708249376544428
aF0.9975516806906144
aF0.9998482712057822
aF0.9954370045964698
aF0.9645881926485703
aF0.9614072557260218
aF0.9557157766192906
aF0.9464936751863302
aF0.9629911223525556
aF0.9066547557362947
aF0.8729882027874876
aF0.8377910415632784
aF0.7942257413067875
aF0.7500885623407374
aF0.7067191831355323
aF0.6551073697971048
aF0.6280411964196613
aF0.4892150658794745
aF0.3736511922792951
aF0.38655349216775964
aF0.3120825208871438
aF0.23725634741827104
aF0.18992242692621097
aF0.17715605928377723
aF0.1377698645934482
aF0.08476469521289187
aF0.06508207812928614
aF0.04221489814194464
aF0.07214276533401731
aF0.07547269205380151
aF0.06787691095063358
aF0.03925084094577079
aF0.04341502323086478
aF0.05593927588601784
aF0.054409769923117426
aa(lp7
F0.964232290040113
aF0.9637144036201424
aF0.9692601445130719
aF0.9686659756436385
aF0.9494649569453304
aF0.9638407403824112
aF0.9685475876845289
aF0.9611537906344981
aF0.9489338249728424
aF0.9286671856184828
aF0.9390748465567899
aF0.8705435865787218
aF0.8568916894331338
aF0.7704530101933862
aF0.7514382291249938
aF0.6966116102089609
aF0.6795509006547725
aF0.5767439848224255
aF0.48653454973437493
aF0.3969728401415482
aF0.36699462733431965
aF0.32341162818613
aF0.2716841769251472
aF0.23500574868771015
aF0.1894053078483865
aF0.14840824490069762
aF0.10595486797980032
aF0.02744791610657782
aF0.06935726358375184
aF0.09034171153207576
aF0.180514695834772
aF0.070615233906054
aF0.05363295247638841
aF0.046279131993882415
aF0.04753123496910219
aF0.06183334344467527
aa(lp8
F0.9613114519875927
aF0.9393843280273724
aF0.9638186219773501
aF0.9565935688505174
aF0.9181379355406984
aF0.9589372256368177
aF0.9926928421480409
aF0.9793711287831375
aF0.936774096562041
aF0.9211249650675929
aF0.9274371844849967
aF0.9269719310781985
aF0.8112585962552276
aF0.7761675132438204
aF0.7580499038558017
aF0.7562818520693555
aF0.6562306730458642
aF0.5817503271418554
aF0.4174080307566183
aF0.4345602110923442
aF0.36951066411253786
aF0.3392518991480252
aF0.3519842723416684
aF0.2565072184547002
aF0.2116751359088836
aF0.16726940978655194
aF0.12150849330350962
aF0.09984382227036907
aF0.08759427457560566
aF0.10023202330493268
aF0.0960221380066189
aF0.07936394671180243
aF0.05093232971071402
aF0.03905167458716884
aF0.04545547695319023
aF0.025204026722844323
aa(lp9
F0.9641311593594565
aF0.9755205879735522
aF0.9563029934277114
aF0.981886653786929
aF0.9306684740328878
aF0.9601899724696183
aF0.9863333068569062
aF0.9176884601189388
aF0.9306214111000268
aF0.9128702308208093
aF0.8872313630385527
aF0.8601053261865846
aF0.8352196709251689
aF0.810046821689295
aF0.7724225332153487
aF0.7298551253792319
aF0.6795599004561198
aF0.5485952843302995
aF0.4196593153702497
aF0.3916025178262922
aF0.3688697890852447
aF0.31889829654097146
aF0.28425652418329256
aF0.2779560211510446
aF0.23422889134388483
aF0.1902707229653237
aF0.14292162671858608
aF0.09242565850928983
aF0.10724211774168406
aF0.0727185357540488
aF0.0980765636814237
aF0.03535949229668157
aF0.05440429791654374
aF0.03444480317416462
aF0.04383947294740413
aF0.057108232689469116
aa(lp10
F0.9689354570224576
aF0.9611070018322873
aF0.9386324855952738
aF0.9336971881153521
aF0.9529554386719046
aF0.9513597576816508
aF0.9389873711031046
aF0.91679645833365
aF0.9568332503846043
aF0.9036612767748352
aF0.8394268771992199
aF0.8501879023639428
aF0.8335733301683252
aF0.8133409892442965
aF0.770695482117307
aF0.7247349111339084
aF0.6626835250468049
aF0.5849718570606529
aF0.3856022464603382
aF0.39780156148726764
aF0.365125694561151
aF0.33367451368255535
aF0.3176396034625809
aF0.31845666514594084
aF0.24987063028167103
aF0.2027960989712284
aF0.1416370473356578
aF0.12761008931556103
aF0.10012067965793295
aF0.09711297760108102
aF0.07844262033076312
aF0.0653905039704104
aF0.05020690724576201
aF0.028000771887658572
aF0.06152757164678739
aF0.059864046878338344
aa(lp11
F0.9793226039944014
aF0.9554552830421825
aF0.9500015290161518
aF0.9736359279100122
aF0.951714245956584
aF0.9404088887253753
aF0.9211056782620974
aF0.9149851201177394
aF0.9373036343772717
aF0.8819712745980384
aF0.8698858048185805
aF0.8330358774038402
aF0.8431587091993288
aF0.7911236685314045
aF0.7595109251806949
aF0.759681176233435
aF0.6635933376155725
aF0.5659935457886635
aF0.4359830749596179
aF0.399201386127176
aF0.3701742604551057
aF0.34025027705378286
aF0.31904810719127813
aF0.29502757828858717
aF0.26405600074656865
aF0.21620636469893054
aF0.16572807919910307
aF0.10245386716785121
aF0.1083229233953566
aF0.09299373211351866
aF0.0870856382015563
aF0.07915453531323889
aF0.07753541539591138
aF0.07447110853099809
aF0.07655911429622232
aF0.08203310132378154
aa(lp12
F0.8944240429224759
aF0.9424953073128045
aF0.9466486455617009
aF0.9476308407008959
aF0.9783655110008953
aF0.9312785540970164
aF0.8959418516813247
aF0.8760560980980578
aF0.8716132347182292
aF0.8573426767379692
aF0.8138744097592574
aF0.8125363401127493
aF0.7887476415911244
aF0.7698092336542325
aF0.7435106953917312
aF0.6965489034350475
aF0.6601114556629245
aF0.649013640759522
aF0.4807850809662807
aF0.40455610424538235
aF0.36384258456076396
aF0.33060110450162083
aF0.31571424347092364
aF0.3015301145046377
aF0.27416732295177765
aF0.2245734487504211
aF0.18503085934395974
aF0.15381311870534514
aF0.11989991576196429
aF0.10537968741101014
aF0.1084407011522882
aF0.10734192876964445
aF0.11153914700389511
aF0.10701758590895714
aF0.0789335717317542
aF0.12055111614744735
aa(lp13
F0.9913928306354164
aF0.9391079132651033
aF0.927110097358748
aF0.9296643117118767
aF0.9233980591223292
aF0.9109875337589595
aF0.9207912942293163
aF0.813233963142251
aF0.8558359517264552
aF0.8267771902265122
aF0.7933593107482702
aF0.7905355700088383
aF0.7624952249216977
aF0.7465574840427113
aF0.7197732358607517
aF0.7014846516811559
aF0.6628529842605757
aF0.5749934035431217
aF0.42079543116241197
aF0.39137832839266695
aF0.3737890509065725
aF0.34327997705402474
aF0.31142594135581236
aF0.29746835442815794
aF0.2796272770319425
aF0.24273084814277665
aF0.2046742714183608
aF0.1887431394344009
aF0.16123011562425896
aF0.14274987215029397
aF0.09906555641436103
aF0.15512391990175334
aF0.14528123534058496
aF0.1506641366758613
aF0.16332225803455333
aF0.17229813978056668
aa(lp14
F0.9634307359672771
aF0.9149598702944844
aF0.9324077311984209
aF0.8908038695204661
aF0.8930869467882632
aF0.8994500174176739
aF0.845626203041392
aF0.838716630592485
aF0.8242695462189222
aF0.8050209991620009
aF0.7827640433826525
aF0.765322522118677
aF0.7507905148698363
aF0.7314479301817739
aF0.7118962655230181
aF0.7150720001844374
aF0.6487407511185332
aF0.611998263617486
aF0.46230817856746614
aF0.4051097228132874
aF0.37346704802124653
aF0.35911060018396684
aF0.3380359018302783
aF0.3470469124549192
aF0.2801610784227697
aF0.27274517156412337
aF0.22427239062290225
aF0.2262805385078642
aF0.24212792750107656
aF0.11823074753264173
aF0.1714884839328695
aF0.14896058056319347
aF0.1882114881628719
aF0.1985645024889309
aF0.2544757022102642
aF0.22439097463095523
aa(lp15
F0.8924432019301908
aF0.8712270508737985
aF0.8513668623863898
aF0.8227263000918358
aF0.8735851792329045
aF0.8342597741599673
aF0.8224793330836307
aF0.8087401353116527
aF0.8208011894464876
aF0.7744086940882502
aF0.7565563288907475
aF0.745387272679108
aF0.7576091858002735
aF0.7155212264958635
aF0.6977719796501298
aF0.6755091125025876
aF0.6370394028519812
aF0.6086284331889004
aF0.4357590379053721
aF0.4113654418582016
aF0.37193734505103776
aF0.35558071001801617
aF0.344901429468143
aF0.33996021942926635
aF0.3387837813629434
aF0.3250592929034738
aF0.29005746757186146
aF0.2606827671221317
aF0.24462792593139684
aF0.2321998650460771
aF0.22278390950674856
aF0.22867197475279857
aF0.23139790101467642
aF0.2505290883434542
aF0.26112559123568874
aF0.27094107694086716
aa(lp16
F0.8053854014600378
aF0.8122006548665587
aF0.851524423371996
aF0.7680353070873712
aF0.7957855419491991
aF0.7972274957737631
aF0.7861000363931002
aF0.7739527462690443
aF0.7615014971346881
aF0.7399051597712683
aF0.7016028129348885
aF0.7358424306536845
aF0.7149202137561436
aF0.6768612660780855
aF0.6925480148078528
aF0.6677132330839606
aF0.6320351353279238
aF0.6072558627871523
aF0.42249265329340285
aF0.41433559810791776
aF0.3796629827452387
aF0.33894554944742794
aF0.33307175314687043
aF0.3405212821869145
aF0.327816718397179
aF0.32853531289415244
aF0.3507844174087471
aF0.3033274627257379
aF0.28987650656177627
aF0.286602179327654
aF0.2806009868067982
aF0.25537588499697683
aF0.28665906650551154
aF0.2962743106171022
aF0.3389263161437161
aF0.2550084942254581
aa(lp17
F0.7450573854625793
aF0.74502512037605
aF0.773054412911046
aF0.7570458487999212
aF0.7541468992475352
aF0.7601153750378714
aF0.7542729200829286
aF0.7419880581860079
aF0.6992620726704196
aF0.709094908629032
aF0.6973884972876173
aF0.6917548954326708
aF0.6919278735344567
aF0.706633873004211
aF0.6795485866648392
aF0.707268132687153
aF0.6128858809910676
aF0.5299610826959147
aF0.4453990157140053
aF0.36030616798562753
aF0.39968383729052503
aF0.3866015601195985
aF0.3627334356260486
aF0.3532250866882223
aF0.3185300440053552
aF0.34744701757092894
aF0.3322071809395899
aF0.3226366689779158
aF0.3155529106925516
aF0.3393116210757931
aF0.3466677637094498
aF0.33312349680166703
aF0.33155194294175877
aF0.3391973183788619
aF0.3304137792257807
aF0.34144691644584907
aa(lp18
F0.6761509809145955
aF0.6844740251099564
aF0.6925040355216563
aF0.7016373411683388
aF0.715827402918308
aF0.7356041607263546
aF0.7327126343871381
aF0.7090992340904597
aF0.7266448436418812
aF0.6822388309049167
aF0.6507525381044232
aF0.6690025532475845
aF0.6733493774534869
aF0.6640926953212871
aF0.6704431169751744
aF0.6449285670304711
aF0.5890563993942258
aF0.5103747488049796
aF0.4076220596147942
aF0.4382513937141348
aF0.4035738947871033
aF0.3898823927910716
aF0.3721899261939428
aF0.3841070982454522
aF0.37270878007788244
aF0.37610279121919504
aF0.3707150847059591
aF0.3721953272114516
aF0.40108793153813427
aF0.37613890519478116
aF0.37196409990299156
aF0.35937614521344385
aF0.33555545262678377
aF0.3413219163318065
aF0.3638632657393897
aF0.36692450104990876
aa(lp19
F0.6017120102874824
aF0.6024356187512112
aF0.6388910611001686
aF0.6314418479332765
aF0.6415424322249329
aF0.6555526722498518
aF0.6830584786251273
aF0.6611654117560425
aF0.6578709427251317
aF0.6541952886384755
aF0.63196280246916
aF0.6176162143207683
aF0.6278814667699125
aF0.6347358806918569
aF0.6222538486790292
aF0.6042750228332485
aF0.5641008422565195
aF0.5129333878121102
aF0.5017915205113795
aF0.4159800825971359
aF0.4126647057900934
aF0.42514474036658956
aF0.42308044751497564
aF0.4076332994503506
aF0.46027916748814646
aF0.39090687798562507
aF0.40635931088644056
aF0.41375908771189507
aF0.414883356768694
aF0.4197072766243076
aF0.39933177249308655
aF0.3697839789533989
aF0.3889960151070832
aF0.39267284717782847
aF0.3862387044373619
aF0.41628747144245104
aa(lp20
F0.5862738509405117
aF0.614887063573479
aF0.5521573150265673
aF0.5472341866638943
aF0.5526828485054781
aF0.5838162324970491
aF0.6183439094789168
aF0.5879596796248182
aF0.5737472608738063
aF0.6680306816695938
aF0.560437368602579
aF0.5439980235438906
aF0.5741146636540605
aF0.5542639419067913
aF0.6119407471322439
aF0.5845313590236486
aF0.5257632805203197
aF0.5106032759226395
aF0.4679822986178436
aF0.48028688445087386
aF0.4063024067936285
aF0.48684657993933617
aF0.49370294316761426
aF0.42394030370437175
aF0.42463557021183085
aF0.4452159770285778
aF0.4009273736756498
aF0.4815424633864508
aF0.4554033526597923
aF0.3940396163125908
aF0.4386322470799698
aF0.47013786676472036
aF0.42110309031392423
aF0.4266752951560663
aF0.4812263813369712
aF0.49455793751374777
aa(lp21
F0.5001618614964943
aF0.4921984972199994
aF0.47706320903280325
aF0.4163625828078293
aF0.4670764371617797
aF0.4757714321732417
aF0.4325772761787024
aF0.4770034641694979
aF0.42515800756034444
aF0.4591081953635959
aF0.4837240499630007
aF0.41582143366170526
aF0.43138392971949735
aF0.4905815830008552
aF0.4397198422806311
aF0.43851414828399804
aF0.48118115456229693
aF0.48290612266623295
aF0.5227625214084903
aF0.5387680412147883
aF0.56599526358011
aF0.6926687851836659
aF0.6105927645313051
aF0.6054862721092716
aF0.6012514276952495
aF0.6295566773017726
aF0.6093935508619004
aF0.5613733710228065
aF0.5829718120806335
aF0.5877492536540613
aF0.6612884132858592
aF0.5522137137957959
aF0.5374435017572805
aF0.5446279330798537
aF0.589274023401035
aF0.6105780673336709
aa(lp22
F0.4090004721031117
aF0.4034097093484746
aF0.4051616835795232
aF0.3927322191225679
aF0.3777095330363695
aF0.39211014665015487
aF0.3844259622284656
aF0.4014416102794413
aF0.3929834978914322
aF0.4100198483338012
aF0.41234508752940907
aF0.39757177069001914
aF0.4508725985852593
aF0.43490988957897403
aF0.42768138479823653
aF0.4044936037775519
aF0.436280985634446
aF0.45422480849598695
aF0.5805160356811815
aF0.6537100960154668
aF0.6205947105095412
aF0.6393026599528011
aF0.6402401875698892
aF0.6263268729630723
aF0.6642162572607501
aF0.6569972265222459
aF0.6486332005178068
aF0.6676195436835595
aF0.639948354893161
aF0.6397505123187126
aF0.6421285556032585
aF0.6305692241146265
aF0.6245414425312231
aF0.637377925294173
aF0.643413022529108
aF0.6785837724753906
aa(lp23
F0.36433129438421824
aF0.3578073272773702
aF0.35504542718640836
aF0.3551170131659693
aF0.3544692051368586
aF0.35513663763558373
aF0.3584005349054691
aF0.365005294258544
aF0.3789353637241863
aF0.3758027562829311
aF0.35439503162851405
aF0.4046108175847098
aF0.40121839656485353
aF0.4041977958432928
aF0.43328657357244305
aF0.3765144830893705
aF0.364700135296461
aF0.48738269659510497
aF0.5587531830424548
aF0.5881042193114423
aF0.6319607609447949
aF0.6432624649269031
aF0.6497589124080758
aF0.6576071824077135
aF0.6636708755531646
aF0.6807099451730542
aF0.6857073607383174
aF0.6948266356146002
aF0.7134828567054896
aF0.6968318728537811
aF0.6891097524416973
aF0.6829280493054343
aF0.6597290014927317
aF0.7404117797848501
aF0.6656997001701246
aF0.6708653018286496
aa(lp24
F0.3189005726687123
aF0.31626152440789285
aF0.31940909736026496
aF0.3193366265892036
aF0.3200154361035276
aF0.31407930061673334
aF0.3203761059037454
aF0.33491425121671936
aF0.3488500574645269
aF0.3526097480882971
aF0.35699461605850974
aF0.3705499558312359
aF0.3809993625006846
aF0.3872611316510673
aF0.3935894686091311
aF0.39193039573813016
aF0.4081537021636904
aF0.47662469438654087
aF0.621738766050098
aF0.6085043139774365
aF0.6400540021840679
aF0.6556391478011574
aF0.6630471366652859
aF0.6691569730818546
aF0.656169547083069
aF0.6981725813222593
aF0.7198304815148374
aF0.7446804131038575
aF0.7382530410160224
aF0.739988214396514
aF0.7323573491714265
aF0.7506813010534894
aF0.7373660273742279
aF0.7311382792308655
aF0.7324629808485564
aF0.7242345142713275
aa(lp25
F0.2782307774821908
aF0.2774994343411926
aF0.2762113447548612
aF0.27941793991975955
aF0.28811516187640723
aF0.2852024126212025
aF0.2492429132333438
aF0.3012889669174616
aF0.3238121764143381
aF0.33631605318530156
aF0.3461777334392248
aF0.3512835620708538
aF0.36864252160424527
aF0.36015311365692776
aF0.3821693942089971
aF0.3912442751712522
aF0.3833126468563341
aF0.42981012207104896
aF0.5596267295362523
aF0.6180612678310133
aF0.640349425916273
aF0.6925997153090225
aF0.6759806687314969
aF0.686879772838169
aF0.6982594862478922
aF0.7236699253595286
aF0.7477014377782459
aF0.766257972068865
aF0.7734888433713502
aF0.7785245152351193
aF0.8001995032332372
aF0.7836640298484986
aF0.7762439473185528
aF0.7752096829933272
aF0.7747933745398137
aF0.7765655606125346
aa(lp26
F0.24067913797734927
aF0.23744071256510998
aF0.24017220489884247
aF0.2443547689004064
aF0.24881202020017082
aF0.2760387974324656
aF0.26497035898123533
aF0.26977400371546084
aF0.29509076360729725
aF0.3520593706107966
aF0.3153397632905781
aF0.33136693239852916
aF0.34092400373558884
aF0.3716771666279253
aF0.3717683438175105
aF0.38651682884422445
aF0.4094680633001577
aF0.4777862205181159
aF0.6270135990994474
aF0.6163813842890029
aF0.6248163491749753
aF0.6620456654973893
aF0.6670916703678366
aF0.7113777428090022
aF0.7310350608765973
aF0.7537828133276437
aF0.7791228129111154
aF0.7960253228585306
aF0.8087220336558215
aF0.8178939783077054
aF0.8205299853204626
aF0.8166650112646003
aF0.8379077421215133
aF0.8208624539297467
aF0.8254604240054629
aF0.809812275301465
aa(lp27
F0.189318369080253
aF0.19572214902411436
aF0.21550602646765746
aF0.19614313897571145
aF0.21137818986791404
aF0.21797440074167496
aF0.19453918692452207
aF0.27064262439428116
aF0.25953144126870814
aF0.28353956570284655
aF0.29894204805743385
aF0.3096965003477265
aF0.32382917860162475
aF0.371335693856684
aF0.3257166013171767
aF0.3829632118092812
aF0.40663162582806084
aF0.418331565645785
aF0.5882245501124406
aF0.6384067985348844
aF0.6656120028252581
aF0.6934255728966493
aF0.705046883900619
aF0.7307829210888297
aF0.7617040498116744
aF0.7822352838891433
aF0.8067856097683128
aF0.8237794797417336
aF0.8389260392187454
aF0.8756133605484246
aF0.8486828709023353
aF0.8460979720390936
aF0.8223702692034014
aF0.8566983990914767
aF0.8954866481762481
aF0.8682145824854892
aa(lp28
F0.15385046344759848
aF0.15373255116301346
aF0.15810295192267398
aF0.16652261844368432
aF0.1678109090322259
aF0.20960842566087232
aF0.17059896019226248
aF0.2106610532438342
aF0.22802919940565533
aF0.24344953914562506
aF0.2809161903600529
aF0.28221221262410934
aF0.30937120258567524
aF0.3515189593172846
aF0.3555418463411893
aF0.37903482562249824
aF0.4172490230257748
aF0.4792168219331635
aF0.5492998249890189
aF0.6196778478181324
aF0.6663821465986193
aF0.7028770669481841
aF0.7147955522354836
aF0.7545888365859327
aF0.8108371059810506
aF0.8201238254257422
aF0.8309687236676285
aF0.8549919420938609
aF0.8647232122914257
aF0.8693951254795627
aF0.8689951566787681
aF0.8682845658177755
aF0.8737545315927697
aF0.8810298899781316
aF0.8902325565767496
aF0.896576902809584
aa(lp29
F0.12173715456754589
aF0.11896237130819518
aF0.09424924377837963
aF0.12737727397528736
aF0.16418140235892262
aF0.14749714061397493
aF0.14859523552941853
aF0.17065017696618737
aF0.18702181787354272
aF0.2010130893770614
aF0.21378790815530735
aF0.2473808307021384
aF0.2788679162050258
aF0.31321246650588674
aF0.31596033206464913
aF0.3731327496600637
aF0.41324417706404165
aF0.4837636001099073
aF0.550786661133418
aF0.6073167793139475
aF0.6830332566402875
aF0.7137748010922008
aF0.7749749660819651
aF0.8286540620853772
aF0.8675413671327044
aF0.8452855131862926
aF0.8581323530762229
aF0.8713613907617552
aF0.892760590281665
aF0.8906011866171373
aF0.9005483320422022
aF0.8931409514849685
aF0.8939458683251754
aF0.8993865679074604
aF0.9094406179961674
aF0.9071222863108669
aa(lp30
F0.09402195213658172
aF0.0925502885910809
aF0.08886277452637682
aF0.10217007527822486
aF0.07968640529110883
aF0.1152700831091258
aF0.1242244787377183
aF0.14352431530770135
aF0.152014659102063
aF0.14772398669063727
aF0.15695218829576285
aF0.20632494757784023
aF0.2532062350422299
aF0.2947879131165346
aF0.3312696009396913
aF0.3436977628554229
aF0.4297433828496976
aF0.3984416439224069
aF0.6259237184048765
aF0.6329981995725611
aF0.6711745764189632
aF0.723252941122497
aF0.7708408919166495
aF0.8091683791566036
aF0.8239540034455439
aF0.8742489583210273
aF0.8791888966708464
aF0.8916007027130558
aF0.9025422560803767
aF0.9118803880317797
aF0.9186963175799338
aF0.9113965587657062
aF0.9113550761470247
aF0.9104184865546783
aF0.9189640794165832
aF0.9171151077080419
aa(lp31
F0.059782149323580516
aF0.0825310935467282
aF0.08656058616394616
aF0.08276110971673242
aF0.08295306815237524
aF0.09189976086287857
aF0.10270244375271688
aF0.11200255358917417
aF0.12392911426528097
aF0.12947018988279096
aF0.09496616745775212
aF0.18945045268419566
aF0.20813588578603742
aF0.28850187914997016
aF0.3193892031798209
aF0.35985941543080724
aF0.35752102194078145
aF0.3760519114403721
aF0.6292848348489526
aF0.6441926576431465
aF0.6500699102338156
aF0.7401550376220146
aF0.783294344289755
aF0.7956933403755324
aF0.8304334783012159
aF0.8858980291808302
aF0.9060242658960367
aF0.9027455415927464
aF0.9185468988088791
aF0.9353759774479778
aF0.9657736082240679
aF0.9422199563169689
aF0.9254125470393995
aF0.8995560226549252
aF0.9220253773228179
aF0.9263517894450469
aa(lp32
F0.06674266033026394
aF0.0795776828513365
aF0.09736378149504449
aF0.07042969621475287
aF0.06688810728947422
aF0.07758159735693727
aF0.08521087967296054
aF0.09406342731453479
aF0.09608872729392835
aF0.11765077233617757
aF0.15142740290885948
aF0.17983743205677896
aF0.2328575019475586
aF0.23587407754818124
aF0.32521159402609834
aF0.36262697718952847
aF0.40936803480442013
aF0.4803919606500288
aF0.6240219788867191
aF0.6442511700877519
aF0.6782825214537022
aF0.7190944947195387
aF0.7629252678681248
aF0.8017604260277656
aF0.8079346441930513
aF0.8725162821109039
aF0.8681789261360423
aF0.9142690392278181
aF0.9408263860200208
aF0.9462691039267231
aF0.950446390552327
aF0.9483447132825529
aF0.9389099930888285
aF0.936745279386254
aF0.9180227004291778
aF0.947534676011774
aa(lp33
F0.07627221219863588
aF0.1001805385351717
aF0.07029194562997931
aF0.05990479894018191
aF0.05982938150315226
aF0.060973541548296706
aF0.06877471693477814
aF0.07282077753128605
aF0.09162126845109206
aF0.11174202876201085
aF0.1450884345137727
aF0.1877650011363274
aF0.23511774898754353
aF0.3420899157529949
aF0.33303450197678547
aF0.37000263566829006
aF0.38988046918135116
aF0.43118744565592393
aF0.6270585664915103
aF0.6201449892140397
aF0.6857255311737123
aF0.7285851904953637
aF0.7704363867963478
aF0.8113868642017678
aF0.8725462869370739
aF0.9044007638702162
aF0.905638745299973
aF0.9291180230211702
aF0.9411255924819816
aF0.957050767166599
aF0.9547640469870615
aF0.9477129325019976
aF0.954394453961677
aF0.9525866276534272
aF0.9463356983034769
aF0.9449146855063568
aa(lp34
F0.06869115928512075
aF0.06715897666888093
aF0.06308997722066953
aF0.02568265802849384
aF0.02598647667215794
aF0.051548500678414724
aF0.05026987068013369
aF0.05193781578291681
aF0.10691178192087267
aF0.10954679561255527
aF0.13184023246685353
aF0.18087575916795057
aF0.2543133054804978
aF0.27437004580299956
aF0.3284308452287464
aF0.36114075077549496
aF0.3941314172974336
aF0.40396982751581045
aF0.551232384783551
aF0.6648630759319211
aF0.6998588248451133
aF0.7364314676397871
aF0.7813695400765774
aF0.8254034022945366
aF0.8542564867728607
aF0.9018272972489442
aF0.9221962544749418
aF0.9339812994864407
aF0.944726352632995
aF0.9561860967156159
aF0.9630420813355808
aF0.9615062107698371
aF0.9876762014118947
aF0.9577176887501558
aF0.9582811652491083
aF0.954411087907083
aa(lp35
F0.06420729289631441
aF0.0609778366158981
aF0.057670604906791545
aF0.04822305166217622
aF0.014681160888905314
aF0.03650838167753552
aF0.04110943729508674
aF0.016976363904602196
aF0.07182668789007239
aF0.09245136870508464
aF0.13193343736499388
aF0.1583524568462477
aF0.2148324799482572
aF0.2639177477410677
aF0.33206801111377865
aF0.35491890565205286
aF0.38994860800444625
aF0.4349323918159922
aF0.5633371143119571
aF0.6513724129506551
aF0.704715092175186
aF0.7415484207187538
aF0.7833855406620878
aF0.8572446067566541
aF0.8746989747971062
aF0.9288057453732569
aF0.9546086401011126
aF0.920755088127149
aF0.9510077614423155
aF0.9626020045056443
aF0.968126746210275
aF0.9702971054383924
aF0.9353310246751942
aF0.9663563101647227
aF0.9587274563987611
aF0.9618096009013255
aa(lp36
F0.055609876635016195
aF0.05397043762026885
aF0.05755190173553971
aF0.04429242321942835
aF0.036454922460217046
aF0.03514093361303152
aF0.036106176642438634
aF0.05042719032991648
aF0.06448341228962343
aF0.08610686874997937
aF0.11760216864626523
aF0.1856299267797594
aF0.15246452303326744
aF0.25505164216774306
aF0.3042949339992947
aF0.3471349196311223
aF0.3861732981399819
aF0.4869174502992868
aF0.6247759190568627
aF0.6766978707948205
aF0.712505767325232
aF0.7364370008417599
aF0.7914174219095217
aF0.8390063500557532
aF0.8787395708867058
aF0.9144748737275231
aF0.9600450435022373
aF0.9502429891025368
aF0.959118913520646
aF0.9754367293568117
aF0.9787545234901592
aF0.9746708475119714
aF0.9934389476460275
aF0.9331319273627023
aF0.9691635965782482
aF0.9659162340381554
aa(lp37
F0.056092237789190445
aF0.03415465451739235
aF0.04611507920213064
aF0.04260937020213944
aF0.03694551392511761
aF0.036607365035620426
aF0.06165195404409409
aF0.049175004838653814
aF0.06565340374134188
aF0.08682041929749838
aF0.12153789984149056
aF0.16353272059466384
aF0.2105131808747165
aF0.2624659804834829
aF0.30250987957171277
aF0.3202859636628156
aF0.3880285311041639
aF0.4914217539020276
aF0.6190097232937842
aF0.6571490865282972
aF0.7032696757530836
aF0.7325855856580538
aF0.8122853587604227
aF0.8411821567325343
aF0.8833663738934795
aF0.8917985409150222
aF0.9397047288873029
aF0.9538949010483215
aF0.9618080289442239
aF0.9955518665094064
aF0.9953255544116023
aF0.9874974817143157
aF0.9760342019393917
aF0.9642613355469333
aF0.9653199899087379
aF0.9720931698986756
aa(lp38
F0.0482170172079495
aF0.054810879128128084
aF0.04053435687453357
aF0.04226603619336422
aF0.03951275699851948
aF0.042647311343906105
aF0.041346568580322055
aF0.04020043321227911
aF0.061461324096607296
aF0.08976554794700825
aF0.11497879909889862
aF0.1639617464101138
aF0.21234779061859868
aF0.2609432462983451
aF0.31602402297308274
aF0.3546171628157504
aF0.38302711449308574
aF0.4876644651093265
aF0.5771035049832748
aF0.6516101007803871
aF0.7005372299714
aF0.7450869143013155
aF0.7680105508453374
aF0.83588429095929
aF0.8739653631326204
aF0.9196189866485598
aF0.9321069535711769
aF0.9553886053059076
aF0.9574616797167913
aF0.9471886749313897
aF1.0
aF1.0
aF0.9805110158223039
aF0.9722255317280261
aF0.9699446918665892
aF0.9704784385789683
aaa(lp39
(lp40
F0.9571355375027173
aF0.9581401888677437
aF0.9491233845864984
aF0.9483103468164453
aF0.9165143923239505
aF0.9435173530155863
aF0.9496614557651887
aF0.9699039871203852
aF0.9589362478430832
aF0.9121497337807005
aF0.960019870798086
aF0.9000444729657577
aF0.8983949193056346
aF0.847117971394357
aF0.7659805966025248
aF0.6931405186242344
aF0.6467693208508664
aF0.588504287356818
aF0.3902694106985129
aF0.33853831721658717
aF0.2854707825318981
aF0.23026140337796325
aF0.14122387577348214
aF0.0960975600063466
aF0.0966907646946684
aF0.13674521041776835
aF0.06895474274651034
aF0.04383827878322187
aF0.028049249604225994
aF0.028839828604198703
aF0.03228475220963122
aF0.04121352919701808
aF0.01428717202440589
aF0.027221606687310513
aF0.02654490177548033
aF0.00434635662342895
aa(lp41
F0.9564034348852902
aF0.9575510198892563
aF0.9465350232389413
aF0.9351221927223123
aF0.9449470905644595
aF0.9483356157279134
aF0.9607931432776073
aF0.9908310690132147
aF0.9924527505511723
aF0.9315898466938246
aF0.9265691722588961
aF0.9084518287604529
aF0.8734886859114593
aF0.8429479552892541
aF0.7561856668661664
aF0.6907384294646443
aF0.6404111837987703
aF0.6219755625522234
aF0.3911489285443774
aF0.3536338909899283
aF0.2871093987200657
aF0.21753982846924655
aF0.13830321213981997
aF0.11822121824912951
aF0.0998692510184367
aF0.05267722124224576
aF0.06669933079698219
aF0.044051161515999436
aF0.0
aF0.023551092050516902
aF0.03713889932229685
aF0.0305669382658904
aF0.02647099114285165
aF0.03302153822092085
aF0.03350844949190667
aF0.032873354717022546
aa(lp42
F0.963457880173966
aF0.924349234151262
aF0.9424342691586788
aF0.9561343006389765
aF0.9529032777467258
aF0.9604955952004949
aF0.9654449387927501
aF0.9613881710197197
aF0.9628400287456876
aF0.943307893707977
aF0.9324627069748463
aF0.9273909823183261
aF0.8531712254472155
aF0.8141922905377278
aF0.7570921208334153
aF0.7134059744515626
aF0.6312093199750431
aF0.5360593889173065
aF0.42799656015551735
aF0.386867636501406
aF0.2847443093137907
aF0.21852126942774938
aF0.15652454523436007
aF0.09452354866710212
aF0.12326091628077765
aF0.08060205634383227
aF0.06390745827046891
aF0.04193144731390417
aF0.008418166016513207
aF0.026059682040881806
aF0.03615582566474642
aF0.04203096600553563
aF0.014318119308227142
aF0.007417368885602543
aF0.033737244744578565
aF0.032622091639929705
aa(lp43
F0.9413331259652038
aF0.940233914509767
aF0.9286975142373639
aF0.9466359369480714
aF0.953753329056758
aF0.9576817649472887
aF0.9576577282585981
aF0.9544085958899428
aF0.9371692208550253
aF0.9898724004561137
aF0.9338426561361669
aF0.9015408333958147
aF0.8637909927249062
aF0.8154716682390291
aF0.7569482800634749
aF0.6713415248607646
aF0.6456704651833931
aF0.5256605749592129
aF0.39999106055744693
aF0.362067561090002
aF0.29725447859862975
aF0.2285070339232158
aF0.1427718993445682
aF0.09693225678146931
aF0.09889857314481852
aF0.05685706468595629
aF0.06593002079326594
aF0.050061467766671926
aF0.0359288364307717
aF0.0057902898314148715
aF0.03384738235363995
aF0.03775892337344316
aF0.030833360765746054
aF0.03883513776274255
aF0.03240147952391227
aF0.030607013919827862
aa(lp44
F0.9336463496365784
aF0.9392962288338996
aF0.9416743737054247
aF0.9416471799867908
aF0.9512587683783439
aF0.9548836350861114
aF0.952578851770376
aF0.9408839298866091
aF0.9487930890910494
aF0.9357865619859745
aF0.9201401019960569
aF0.8746886231717202
aF0.855850022141346
aF0.8721947185120945
aF0.7561931350267522
aF0.6965268455977993
aF0.6658173261011112
aF0.5274729900625326
aF0.36492830728180314
aF0.3636428125130685
aF0.3012927987702411
aF0.23701015564588448
aF0.1954140035144033
aF0.1390871380910702
aF0.11255836741818816
aF0.08660705086329253
aF0.06906062096891018
aF0.049525266880001445
aF0.06565819461730785
aF0.03151573327092299
aF0.028716145773215195
aF0.03873994477935771
aF0.03192388258258557
aF0.0348683359939258
aF0.033481730743017975
aF0.05194279256822717
aa(lp45
F0.9345799822267183
aF0.9468810387354107
aF0.9440782471439135
aF0.9457288140030057
aF0.9500619804901422
aF0.9527766622192053
aF0.9505556288141882
aF0.937275190051695
aF0.8802387994274706
aF0.9654560754486678
aF0.9062574290348016
aF0.8491535128967513
aF0.8382729648673286
aF0.7997102135109351
aF0.7475604199925149
aF0.6927352896483676
aF0.6371922982171188
aF0.5991398182427912
aF0.3776549342576558
aF0.349973910726751
aF0.2867308091832648
aF0.25318625097771225
aF0.19451071724754945
aF0.15091221852665618
aF0.11995943296474076
aF0.09390750559297541
aF0.07499111543236349
aF0.06262578853569763
aF0.046196831261790396
aF0.04571398389196051
aF0.03691344395350935
aF0.0
aF0.03739664882473195
aF0.03618450172618904
aF0.03713913048270726
aF0.005702384572975096
aa(lp46
F0.9866166034053823
aF0.9531297651756421
aF0.9473537017148498
aF0.9462100290531333
aF0.9521950597284887
aF0.9567656507087514
aF0.9483864978389787
aF0.93033469449645
aF0.8941897202788176
aF0.915682487602801
aF0.9232103885932053
aF0.8617042438315639
aF0.8192196551455576
aF0.7325896204245443
aF0.7277197445994911
aF0.6891995909456744
aF0.6307085622216718
aF0.521523573909098
aF0.39610770458824135
aF0.36907869516780156
aF0.3398776355799841
aF0.25420874886326106
aF0.21063178905005536
aF0.1575828842882359
aF0.12347052452960824
aF0.09479211035192245
aF0.07909010495785794
aF0.0637209696412394
aF0.05257273851265377
aF0.06527811311082189
aF0.03941120590398962
aF0.03118113214724694
aF0.0
aF0.06131806432976257
aF0.04878203841855
aF0.02466012611537371
aa(lp47
F0.9686241646713561
aF0.9631956438039891
aF0.9430070047382122
aF0.9493444815803498
aF0.9480283650374618
aF0.939927606315871
aF0.9510911538638491
aF0.917746306339653
aF0.904921933970258
aF0.8939594061910866
aF0.8755634176163792
aF0.8771758495554879
aF0.8053368660449937
aF0.7917143854475684
aF0.7144790448651568
aF0.6515318922135114
aF0.6128993929113524
aF0.5230168366268568
aF0.3938318313371514
aF0.360774887199137
aF0.3128862547982848
aF0.25546174178379033
aF0.180017376671937
aF0.17189984408311687
aF0.08191984765415353
aF0.10566549704868337
aF0.06304015335101482
aF0.07368918860516972
aF0.06522767056843289
aF0.04942966099901469
aF0.013702149888754612
aF0.060660723089634994
aF0.03881992016070214
aF0.030597239305176775
aF0.05397571101815213
aF0.08486298421197595
aa(lp48
F0.953030004598115
aF0.9912100075127943
aF0.9693122056278801
aF0.9485415856242051
aF0.9458789882616426
aF0.9484775002971519
aF0.9259412409381227
aF0.9138571595624596
aF0.8701911511358655
aF0.9016777016095208
aF0.8511295707498648
aF0.8233065022515572
aF0.7884822047485328
aF0.7507295161882871
aF0.7061405731374893
aF0.6628558895050648
aF0.6187977808306194
aF0.6030200484340299
aF0.405313683004108
aF0.3579842436101139
aF0.30891653783023915
aF0.21005142804785262
aF0.2264844466854238
aF0.22965424621325592
aF0.16495283860681667
aF0.12910733731648302
aF0.10435487365473713
aF0.08983656786549728
aF0.07323931215365363
aF0.057170964374341576
aF0.06177680201725667
aF0.05116275428103081
aF0.01794598372258413
aF0.07552595052622481
aF0.04571542799449062
aF0.06185309200472734
aa(lp49
F0.9409092458099851
aF0.9464391627282313
aF0.937536136436988
aF0.9349573971061992
aF0.9294230047827111
aF0.9317436378938337
aF0.914572167862124
aF0.8856220244544106
aF0.8794538403617171
aF0.8350832056756099
aF0.8169596261416808
aF0.7891890134441938
aF0.7844348077219128
aF0.7188013643126996
aF0.6961163513269185
aF0.6614214871210429
aF0.6393146773939753
aF0.5946077064147739
aF0.39168322103072956
aF0.3672870009376314
aF0.32041089248774696
aF0.2842090330918285
aF0.2548892520710729
aF0.22850644811420176
aF0.20249322961388955
aF0.16708372724447498
aF0.1380692794946511
aF0.06475201848577206
aF0.09320108965934501
aF0.09735604147576156
aF0.07081582776259186
aF0.07417100043940447
aF0.07150900451004216
aF0.07790739230533042
aF0.07645095200404078
aF0.06209805835946018
aa(lp50
F0.9582358389173945
aF0.911036041987098
aF0.9112071724839862
aF0.9096769865137538
aF0.9180936921140214
aF0.8979306595132478
aF0.882837915122573
aF0.8585148272369878
aF0.8325014473090396
aF0.7923990214678506
aF0.7333725068397048
aF0.7714119989545364
aF0.7459782084873162
aF0.7197440471194384
aF0.7076894011123782
aF0.6414967459958342
aF0.6185185132428485
aF0.5465294605017975
aF0.43914606426102526
aF0.3652310963254251
aF0.3480382323836326
aF0.3192700459909932
aF0.2907466197598563
aF0.2571452265776611
aF0.20559011355132134
aF0.2085030532663301
aF0.1791682291682083
aF0.15380529075274949
aF0.14813120437821306
aF0.13828284029272267
aF0.14093968272243917
aF0.10538198542665292
aF0.08652521782257167
aF0.11975099898927896
aF0.0871285872789161
aF0.08177199995386962
aa(lp51
F0.9158505598034414
aF0.8802758294760186
aF0.8843523605387047
aF0.8864433018288549
aF0.875478238335662
aF0.886873597734419
aF0.8443995181354996
aF0.8285953151358146
aF0.7936745624820878
aF0.7789791596226747
aF0.8011169552954455
aF0.7714051740328816
aF0.7299209730462535
aF0.7266940594995063
aF0.6491018075317313
aF0.6191296454941102
aF0.6077175490044143
aF0.6382956730429784
aF0.44310661849284017
aF0.3862701317005953
aF0.36048361523437245
aF0.3831835271847493
aF0.31889293035952976
aF0.28867637081962344
aF0.274170273888594
aF0.2470864663959281
aF0.19823512795764753
aF0.16331439565730987
aF0.24588208510571324
aF0.2932674855512421
aF0.1875650080801404
aF0.16565612433748864
aF0.13392736849199632
aF0.14754870866107708
aF0.09813824166847922
aF0.09813838775324092
aa(lp52
F0.8312713090554689
aF0.8327669168015349
aF0.8623479449923359
aF0.8360062019178646
aF0.8538002885736279
aF0.8184041495441515
aF0.8030207738960834
aF0.7857817464224323
aF0.7648614741677878
aF0.7058490994514515
aF0.8051233833526482
aF0.7072762023479493
aF0.7150725967612139
aF0.7219137717658893
aF0.6731110245509787
aF0.6440692467447142
aF0.6162367517575762
aF0.5710944508916063
aF0.4048893592567942
aF0.39167707261337376
aF0.3923220874903689
aF0.34336049377319205
aF0.33762300597581424
aF0.3382128324890892
aF0.29291225313683106
aF0.3569953693736014
aF0.26037330781556295
aF0.2390912962895649
aF0.2501580867364283
aF0.22707185219962014
aF0.22920082615594817
aF0.20686453812263803
aF0.17397545455540092
aF0.1713115053585886
aF0.11191063904620165
aF0.13070333229300043
aa(lp53
F0.7490370873104858
aF0.7771629927724865
aF0.7812340148677597
aF0.809154490738712
aF0.7782384790379403
aF0.7651795370998715
aF0.7526307696820557
aF0.755213440959276
aF0.7499912992215048
aF0.7234237249896412
aF0.7093722959696156
aF0.7041732398315644
aF0.6894336268624576
aF0.6690690558347324
aF0.6255098880058219
aF0.6277468177250144
aF0.6092386758933772
aF0.6148428124808192
aF0.4005516067854749
aF0.3877891128268778
aF0.37916936321692724
aF0.3616754576647449
aF0.3437491631689204
aF0.3279401492955516
aF0.3249074878139675
aF0.3126283470965455
aF0.29475872836474604
aF0.26925769878769196
aF0.2619375511658013
aF0.2694796600462365
aF0.2536577490570706
aF0.23521093803646662
aF0.28088958244991014
aF0.2174605798039122
aF0.20930858594031038
aF0.13605520055000547
aa(lp54
F0.6938760395880335
aF0.722553157565821
aF0.7216821921546204
aF0.7269054015254767
aF0.7207106302741212
aF0.7100758071904933
aF0.7014032321488985
aF0.697897947762009
aF0.6907724187420392
aF0.683216501232718
aF0.6791442627106173
aF0.6664855088095424
aF0.6595337071457972
aF0.6507532688269207
aF0.6384549343341872
aF0.6146217546750169
aF0.6044411263971781
aF0.5839692169794181
aF0.4798229804764587
aF0.4100498559493511
aF0.3841593065586297
aF0.3686442255564524
aF0.35218568273026146
aF0.3160236442834759
aF0.3306239583527645
aF0.32422503934750635
aF0.31596562907787384
aF0.25459075506850853
aF0.27503715738160683
aF0.3092315187684462
aF0.30068259103510653
aF0.2550088681842012
aF0.26788373632058965
aF0.2645531972266915
aF0.2644446280614561
aF0.20149622332660982
aa(lp55
F0.6886326458120526
aF0.6666560559422782
aF0.6964965879043176
aF0.6415002987823767
aF0.6715614269367336
aF0.674272895394346
aF0.6281491687418589
aF0.6540264740127554
aF0.653052994970716
aF0.6757582320888365
aF0.6486846316845526
aF0.621753522047675
aF0.618128057994395
aF0.6552120509281286
aF0.6508029899070638
aF0.6155515871328333
aF0.5840993409251056
aF0.588129963402888
aF0.44589378082963527
aF0.4071062261819161
aF0.3897840669495147
aF0.3771155856812976
aF0.3699206294282864
aF0.3567864217614319
aF0.3483336915249859
aF0.3613686379286589
aF0.4053194630579345
aF0.3491112422365363
aF0.34277750793371875
aF0.38590815768578324
aF0.33017541263978545
aF0.3222008154590903
aF0.3086323509012281
aF0.26356677514564
aF0.3080520806459829
aF0.29889774516683476
aa(lp56
F0.6258197540239582
aF0.6171314160562438
aF0.6335457530872995
aF0.6367279290367377
aF0.6236712242965
aF0.6242625575441526
aF0.6191294572112135
aF0.6146496039688295
aF0.6274724954988589
aF0.5996870549239303
aF0.5626712893319703
aF0.5788007739898678
aF0.588710911160306
aF0.627304451923664
aF0.6142644125184319
aF0.6107136604734701
aF0.6083046726792207
aF0.5577967874171856
aF0.41043797659086584
aF0.4150014282186478
aF0.4061987910417688
aF0.35655391913546847
aF0.3834954394367847
aF0.3765193539882003
aF0.3793849600196319
aF0.38476450804344897
aF0.40783558269248993
aF0.38523850977970264
aF0.38849405668283915
aF0.3653579063276849
aF0.3755152178504267
aF0.3940205640095546
aF0.348498986466468
aF0.3567182342935011
aF0.3656206739539737
aF0.35766548695628736
aa(lp57
F0.5535371865433169
aF0.6035591782984526
aF0.6300258632461365
aF0.5771773224710577
aF0.6198084960159201
aF0.5407721940540622
aF0.6131975924969395
aF0.5355735662584037
aF0.5280283421629451
aF0.5798337908600971
aF0.521873128136067
aF0.5338993651687822
aF0.5307829233211656
aF0.5368827049211514
aF0.6189524649483129
aF0.5962504199575563
aF0.5973055872239333
aF0.4894139386119499
aF0.4362061139912607
aF0.4480102270277384
aF0.41146819653377753
aF0.4503362710231776
aF0.3997069387757487
aF0.38530037545204215
aF0.40388000121790124
aF0.4656615354027019
aF0.47106375276973395
aF0.45725984385809976
aF0.40757701120880047
aF0.420038301097671
aF0.3729456628105075
aF0.4146792293986901
aF0.40612345307141134
aF0.4540422973688396
aF0.40028091043232367
aF0.4154867982005073
aa(lp58
F0.4433915021862879
aF0.3731745968774054
aF0.4574769514164602
aF0.46492323458684565
aF0.40031807012864457
aF0.39456232581835926
aF0.4276898237151201
aF0.4051381660325874
aF0.4469917878278821
aF0.4124355241353282
aF0.4538348339085279
aF0.4556312101809057
aF0.45855593335829137
aF0.45941384503385513
aF0.3903061680160633
aF0.3694316063453999
aF0.442779898737414
aF0.36923428204385306
aF0.4803994785462182
aF0.565710829649606
aF0.6298876795599522
aF0.5205715026123782
aF0.49854229488132057
aF0.49402043428264447
aF0.5371975677946279
aF0.5970033005671435
aF0.5556993023506208
aF0.5326264320038475
aF0.525997802378772
aF0.5630335811074466
aF0.5133734171311618
aF0.5203799412889428
aF0.5984706168006767
aF0.5684845047857872
aF0.5886993505104253
aF0.5362837490759352
aa(lp59
F0.3461866977011936
aF0.34126630745063646
aF0.3347013528746506
aF0.3360978161593914
aF0.3655273180068373
aF0.38390459163899027
aF0.3717932638513676
aF0.36618786421604005
aF0.377504390695477
aF0.36894139710932417
aF0.36436373005742934
aF0.3992570907504109
aF0.38655960208346735
aF0.36415275340798525
aF0.38417691117038866
aF0.36388104303228014
aF0.39365312537099967
aF0.44602214024740844
aF0.49326248832391545
aF0.5678058269458575
aF0.6078165558180277
aF0.5978916786887943
aF0.5678942127544645
aF0.5665774593604814
aF0.5842538679367043
aF0.5952448523644146
aF0.6064050005489764
aF0.6409479174398763
aF0.6073316232920667
aF0.5861107499596337
aF0.6226730503543803
aF0.6013332961826834
aF0.6276472797126925
aF0.6278764893926408
aF0.6407035109100777
aF0.6362481782419519
aa(lp60
F0.28701807887018166
aF0.2868494590610218
aF0.29016489369182535
aF0.2977592260680899
aF0.3230108226999659
aF0.32451906910670525
aF0.3178641833947135
aF0.3054609538637164
aF0.3338264102368058
aF0.33971897586270083
aF0.34893407724157144
aF0.3780732521877131
aF0.3560904935015987
aF0.35547693479967657
aF0.3631007714549969
aF0.3746830384104212
aF0.39674325189574783
aF0.3974605465957018
aF0.5098109267518237
aF0.5747662633943533
aF0.6459027811064607
aF0.6223794193584926
aF0.6211155126888573
aF0.610622870918767
aF0.6073951178628113
aF0.6269283264773771
aF0.6460405163337877
aF0.657621167698612
aF0.6910444713594532
aF0.6640792349070963
aF0.6590303233339546
aF0.6703459997587856
aF0.6768001553098223
aF0.6771496440555224
aF0.6830988273603553
aF0.7103648847736851
aa(lp61
F0.1828874853844371
aF0.22816694362298703
aF0.22951639380615543
aF0.23718645442592118
aF0.26445171510557125
aF0.2687298770964908
aF0.30836772108256777
aF0.291697427715628
aF0.29875330022526253
aF0.31222443669600314
aF0.3163714277892686
aF0.3173934003029201
aF0.3323660403995952
aF0.3201578097037127
aF0.34501057678841823
aF0.36188118314799966
aF0.3899144062026928
aF0.45098334976379645
aF0.5414753670379329
aF0.5797142740012372
aF0.6220616733397175
aF0.6610757276456222
aF0.6404594539623325
aF0.6392829924885303
aF0.6493039574270496
aF0.6550503200506244
aF0.6703541270308025
aF0.6911455974251508
aF0.6999902858120924
aF0.7017728406113581
aF0.7097536707695605
aF0.7161072629155834
aF0.698882860813251
aF0.7259156252217513
aF0.7339212070896931
aF0.7245866852021294
aa(lp62
F0.20502330129597648
aF0.16359435143754003
aF0.13192479860825418
aF0.1979643095492053
aF0.2163951274136446
aF0.24604559218112776
aF0.2076109531112747
aF0.25881393728293145
aF0.2721280140450964
aF0.2779546509332971
aF0.31327600038355763
aF0.29475930449470933
aF0.3346262844295198
aF0.304919872259157
aF0.32846214532660606
aF0.3515473962915724
aF0.3951061389595217
aF0.45471762602393767
aF0.5199264849129405
aF0.5777990726617955
aF0.6166508617020643
aF0.6396980426526934
aF0.6564269797256851
aF0.6694598103920792
aF0.6762717622549391
aF0.6620901868964931
aF0.7012008439468587
aF0.7227521129611304
aF0.7414911224441566
aF0.7763579695550552
aF0.7660485031443136
aF0.7664018568700416
aF0.7773525317178835
aF0.7718072273242612
aF0.7851909528292252
aF0.7897630308468083
aa(lp63
F0.16503349321970204
aF0.15709559932553158
aF0.16321559587806211
aF0.1594088192323339
aF0.17700376479963542
aF0.17637361377448563
aF0.20503770146905267
aF0.25158843542383613
aF0.24258504476419404
aF0.25631827033934534
aF0.2646936798461122
aF0.28298367694537174
aF0.2876178710256308
aF0.2965772863188191
aF0.3010077759123106
aF0.3461814553297043
aF0.39195386690146666
aF0.4231412527570624
aF0.5272605719910995
aF0.5883881037941939
aF0.6024606864624279
aF0.6452564109027308
aF0.6686035270345888
aF0.6907576225841803
aF0.696295064789488
aF0.7151101644366934
aF0.7347160925301454
aF0.7585683450237761
aF0.7854435548760308
aF0.7971199361509153
aF0.8204441334613178
aF0.8256258084408474
aF0.8346589546735043
aF0.7736672628110484
aF0.8420970758779687
aF0.8615289617652965
aa(lp64
F0.13620065828911224
aF0.13623183771202063
aF0.1562218060606117
aF0.14352125853083805
aF0.16222417746847423
aF0.11134278746224799
aF0.1732796962479561
aF0.21637266485621667
aF0.20236227140205257
aF0.21314200625658128
aF0.26562916938495446
aF0.24506147515775845
aF0.2576775402603545
aF0.28380943775897965
aF0.30512437565955924
aF0.34922996909341575
aF0.38817968977862116
aF0.43416907518884224
aF0.5663156089992061
aF0.6380958027163334
aF0.6378249513783839
aF0.6580702667412085
aF0.680324424881028
aF0.6781401478758828
aF0.7234674182775612
aF0.7484688879715274
aF0.7705193410779908
aF0.7968468669365374
aF0.8271186710301194
aF0.844246588555608
aF0.8941572630838849
aF0.8952723430048444
aF0.9064483900234352
aF0.9853893923725079
aF0.8848681333347743
aF0.8830817023571941
aa(lp65
F0.11380359566722402
aF0.1109475419190664
aF0.10155275784128853
aF0.10769399790776865
aF0.12128021072139156
aF0.13182906492259847
aF0.13448522954187442
aF0.1611168629532667
aF0.09532667418344318
aF0.18367288674062054
aF0.1975213965526844
aF0.1765331628458598
aF0.22974192529936358
aF0.2584535074311678
aF0.2662635051211729
aF0.3385102772288572
aF0.4008450899179984
aF0.4244504135256971
aF0.5549191406262144
aF0.6035961515245218
aF0.6461832894227436
aF0.6965798922380313
aF0.6906689517603765
aF0.7172892335000914
aF0.7503031009718546
aF0.7828902150987241
aF0.8051375896510042
aF0.8274161948561823
aF0.8588131104787833
aF0.8782721879039405
aF0.8910486087544884
aF0.8970160860100743
aF0.9173067796697946
aF0.9125298403526688
aF0.9134883250078949
aF0.9068313620062849
aa(lp66
F0.08686463613058369
aF0.10093028977663206
aF0.05793173936635314
aF0.08992840672590409
aF0.12223973472689938
aF0.10334055558878177
aF0.12899733603437583
aF0.13711227583975164
aF0.1568761214490832
aF0.15418658643231042
aF0.1661669557138464
aF0.17892060195674542
aF0.18128960168972613
aF0.2567667486057827
aF0.2863553831329761
aF0.3241192216021236
aF0.37914038787341325
aF0.4451867923583852
aF0.5171110309000998
aF0.6000524457814085
aF0.6643116950471877
aF0.6721096704395083
aF0.6972677616034929
aF0.7280902089030286
aF0.787791811365404
aF0.8298087973163553
aF0.8304086576636754
aF0.8517034787844933
aF0.878046832652063
aF0.9247751403592116
aF0.9059531211641972
aF0.9105201636829311
aF0.9125991424507186
aF0.9197313780890578
aF0.9219567299781105
aF0.9308722392943556
aa(lp67
F0.06626601669719344
aF0.056254322233407685
aF0.06181313769200226
aF0.0673651108126274
aF0.08046540343511235
aF0.1006611657339133
aF0.13952426855369682
aF0.12554216824660486
aF0.13782952892428008
aF0.159587816182994
aF0.13835331395306313
aF0.16117144355190618
aF0.19431283879600927
aF0.23564477403922646
aF0.28263692423489456
aF0.3301594116505856
aF0.36960718377230783
aF0.40553475173227926
aF0.5120898911066988
aF0.5874732794968903
aF0.640896948904638
aF0.676280397061749
aF0.7028047915390849
aF0.7056434925534363
aF0.7805299638648255
aF0.8313735899264422
aF0.8459123203375988
aF0.8682920647638125
aF0.8915904802702377
aF0.9084337603049938
aF0.9178845898501452
aF0.9192769193945272
aF0.9241364942071298
aF0.9260603052910621
aF0.9312182264333335
aF0.9354794560014279
aa(lp68
F0.046837012853947556
aF0.046828160069316595
aF0.04530747708100356
aF0.020460967590951912
aF0.05997172151310206
aF0.08041576677156258
aF0.0911360079562375
aF0.09368135569992603
aF0.05012785787294144
aF0.10942014777953699
aF0.11828785423255807
aF0.14686431615665843
aF0.18530746236162352
aF0.23430124029700353
aF0.2814803764688736
aF0.32261388325069035
aF0.35859208989312963
aF0.39775289564917937
aF0.5483699537437385
aF0.5892174972859977
aF0.6200948002939697
aF0.6727567348312457
aF0.7083215203780431
aF0.7494245502239266
aF0.7979635131653523
aF0.8313879027863176
aF0.860593687036816
aF0.8834664170673784
aF0.9017354184356986
aF0.9198940535219955
aF0.9293173966456648
aF0.9269332238704733
aF0.9359941973586827
aF0.9437928334679531
aF0.93728886473806
aF0.9379094990311555
aa(lp69
F0.03638170053737484
aF0.028639918575567924
aF0.03818989361199459
aF0.038391081617617284
aF0.01982720596722227
aF0.05729674827339093
aF0.032630200558370154
aF0.09922002343677971
aF0.0729574474578798
aF0.07802676017836595
aF0.09350341091219996
aF0.1259050475108385
aF0.18091750243343094
aF0.2318189624518945
aF0.3037441507335338
aF0.3186818529493228
aF0.34002036598770863
aF0.4467609201240869
aF0.5580093490764347
aF0.6008051639769335
aF0.6381802442043243
aF0.6687089709612972
aF0.7262640194769475
aF0.7661588910731987
aF0.8091998787222545
aF0.848172119406593
aF0.8776738330393432
aF0.9002941936483446
aF0.9249741064085343
aF0.9402900793221008
aF0.9501104487430904
aF0.9550253798008427
aF1.0
aF0.9539069208442498
aF0.9434556295142371
aF0.9419413221708997
aa(lp70
F0.04311172204172747
aF0.039492519017420825
aF0.039068630452070575
aF0.039855779017208756
aF0.0383635755620827
aF0.015298958117132049
aF0.04921873252123992
aF0.04065852666338604
aF0.002428729779861906
aF0.0766329526320365
aF0.0741684882378993
aF0.13616068228761277
aF0.18057600226678908
aF0.2235197985426241
aF0.2795525037147899
aF0.31525077049810285
aF0.36825099142143236
aF0.4143154352300163
aF0.5891644324745043
aF0.6018972752349845
aF0.6525543789186227
aF0.6962420133011751
aF0.7671828008878199
aF0.783152332644586
aF0.8275016153232259
aF0.8705012357587149
aF0.8980152170978213
aF0.9238788354154416
aF0.93635944627423
aF1.0
aF0.9657091955837921
aF0.9666104778872537
aF0.966701343149492
aF0.9586722329971767
aF0.9472729795100694
aF0.943545996707812
aa(lp71
F0.042295424769874225
aF0.04128883544424412
aF0.04215407506773432
aF0.037409812058447234
aF0.041777110060886066
aF0.04743807835469087
aF0.032668549490817114
aF0.03761283276771448
aF0.052071695892217745
aF0.07177960304517743
aF0.10697927321456424
aF0.13517194105105207
aF0.1703981126080656
aF0.24585884301039304
aF0.2741551740694949
aF0.29474222359186814
aF0.3427527646913569
aF0.4638111507399138
aF0.6176314609440959
aF0.6201131768012632
aF0.6617263527036985
aF0.7162218483186845
aF0.7396588052819655
aF0.7944849590060555
aF0.8337754031957917
aF0.8690108001427009
aF0.9050444794632978
aF0.9156408630122495
aF0.9116410934438871
aF0.9781462544814281
aF0.9653026122370393
aF0.971457886852855
aF0.9701221805671304
aF0.9588369396911713
aF0.9304170360274414
aF0.954476570418691
aa(lp72
F0.026040207551842453
aF0.0
aF0.03404383749698475
aF0.03402287047379864
aF0.027493443081145052
aF0.033261401887050186
aF0.034461375714835915
aF0.04591665045108465
aF0.043789512597079056
aF0.09923651378770894
aF0.11040524936170491
aF0.14375434645497517
aF0.18131235812233806
aF0.24275269219011514
aF0.2639745304015629
aF0.31426851685525964
aF0.37155267282536364
aF0.4627345938363899
aF0.5499391794530203
aF0.6116211734659431
aF0.6810872085882762
aF0.7170736619223621
aF0.7629998088736558
aF0.816093227056565
aF0.8433541560636925
aF0.8630259576721993
aF0.9079301886708168
aF0.9261240662457544
aF0.9168787105969574
aF0.9530253565817773
aF0.9691110611473805
aF0.9738460342495143
aF0.9698824784813768
aF0.963579355857207
aF0.9567598421873911
aF0.9566790287879529
aa(lp73
F0.025256775213156522
aF0.027190391727609536
aF0.027032325829042216
aF0.02929526899735621
aF0.03212676797564404
aF0.03440464523190903
aF0.036137689709247044
aF0.008698410627261484
aF0.065247117567251
aF0.06420364673430985
aF0.11661445460662752
aF0.1369778071408773
aF0.17184634275032504
aF0.2064604395909353
aF0.3232922896032858
aF0.28693880204855743
aF0.3561760131443681
aF0.4290661903189259
aF0.5767996435309435
aF0.6251173739050122
aF0.6772488812610457
aF0.727604332620571
aF0.7745705812205181
aF0.8177645168793827
aF0.8536437177751353
aF0.896096518885663
aF0.9079836996735815
aF0.924009449706567
aF0.9391653153893064
aF0.9508546345548224
aF0.9926522420929219
aF0.9764157133454247
aF0.9738711534093514
aF0.9689776180157239
aF0.9635079951649904
aF0.9603261971656841
aa(lp74
F0.04062608247553168
aF0.019485925863623545
aF0.04571352668022035
aF0.027217756691804377
aF0.028172251468534474
aF0.04223553843821646
aF0.040402302035726735
aF0.05063453668623225
aF0.07023015810700946
aF0.1399169712503591
aF0.11600432118815039
aF0.13737160928955924
aF0.14286660836135223
aF0.18675300339069356
aF0.25705925727361734
aF0.30971285330155396
aF0.33800105536507224
aF0.39962159455903645
aF0.6158390520154208
aF0.715104228488811
aF0.679514911777876
aF0.729432524918487
aF0.7825117237881819
aF0.8421470683549084
aF0.8727372284148308
aF0.8966388854849018
aF0.9197187564394945
aF0.9297290921292359
aF0.9439490863533697
aF0.9207273226178617
aF0.9703525576304225
aF0.9815510461656212
aF0.9773718233745871
aF0.9771823428912401
aF0.9678102940891082
aF0.9635241208148422
aa(lp75
F0.02259188006847101
aF0.0077052058175287215
aF0.007995983739910506
aF0.021161798775070125
aF0.026177163663733176
aF0.012039619911541566
aF0.05619672338192562
aF0.05757537767108522
aF0.0707834926179711
aF0.10613545750738715
aF0.1349284812340448
aF0.12369807647565786
aF0.15866531304173345
aF0.2036909579188801
aF0.25949320696752365
aF0.3053379692221852
aF0.35139101469232203
aF0.4000391669044573
aF0.5878247547947366
aF0.65218534389129
aF0.6627577503265009
aF0.7308542339677879
aF0.7999436034188021
aF0.8359684251106131
aF0.8806330139539231
aF0.9382950798300186
aF0.9237044620526429
aF0.9339590851761287
aF0.9447383738469279
aF0.9562430644811615
aF1.0
aF0.9816670647581218
aF0.978508970957242
aF0.9747461472520097
aF0.9695801394092627
aF0.9647486921329226
aaa(lp76
(lp77
F0.022137973917567375
aF0.035833571968820255
aF0.0574045956160034
aF0.08684089071883311
aF0.05921318480916074
aF0.04479282530282361
aF0.027777777777777776
aF0.03767690924455032
aF0.040889179512984014
aF0.03467192581847919
aF0.0
aF0.033753782465260805
aF0.04888362300870201
aF0.09113844294322812
aF0.1200943929265319
aF0.1551228552877188
aF0.14664260431259724
aF0.24864921687452035
aF0.3225726799907723
aF0.38422015541011445
aF0.4005099601845954
aF0.41797010238145627
aF0.4341019399390502
aF0.45067267532340877
aF0.4686239609906993
aF0.4708931598229475
aF0.465486533873803
aF0.46029153363835207
aF0.4600172001547257
aF0.47215821793755924
aF0.4729850352921044
aF0.4804280965417329
aF0.45357377156439843
aF0.4997497837741909
aF0.4734421888807804
aF0.417314861083495
aa(lp78
F0.02866110601388522
aF0.031366403256958435
aF0.04161365074115489
aF0.06489954605879172
aF0.05874047957980602
aF0.043012936464922435
aF0.037890874718007866
aF0.037199682467929755
aF0.05555555555555555
aF0.03941551003452539
aF0.037649852313215194
aF0.009260359615746942
aF0.04194772495458657
aF0.08780830692409179
aF0.11765920550151936
aF0.14915818276457546
aF0.18636935743743607
aF0.25326662371621883
aF0.33894006806288246
aF0.39179207066111427
aF0.3933664248856083
aF0.4153972746749158
aF0.43426761579773404
aF0.45302901420392344
aF0.4632908959537796
aF0.4804248081463594
aF0.47273844835530676
aF0.46984778635498553
aF0.47318819572838033
aF0.4392701293753513
aF0.514849880577803
aF0.48912557628929154
aF0.4442214593816148
aF0.47481984257415055
aF0.4743258634716592
aF0.5030750269966674
aa(lp79
F0.03281308261060336
aF0.020359306317925603
aF0.06880822457576105
aF0.062400925696003924
aF0.06566835507460286
aF0.0453855895608011
aF0.03591291234457144
aF0.0327600794247348
aF0.029531830215718258
aF0.011218855656066708
aF0.07936430049987414
aF0.06841126159489326
aF0.03860053521094582
aF0.05553805800065918
aF0.11813411211706072
aF0.1172295327589316
aF0.18139776804008087
aF0.24209538103375033
aF0.392643885883028
aF0.37327086607573895
aF0.39717739693461435
aF0.41834384386092077
aF0.43952424131448115
aF0.44675577319948845
aF0.4593543845076631
aF0.47436365414764164
aF0.4767096860213211
aF0.4758217271478615
aF0.4675702438938563
aF0.460640247697569
aF0.3933677925154143
aF0.4931462699178645
aF0.47509250251677565
aF0.4781258614350888
aF0.5051558739118276
aF0.49362051200909335
aa(lp80
F0.035900039595445694
aF0.04293412769904501
aF0.05050611887071779
aF0.05530120666750157
aF0.041479404420526875
aF0.02987442849098341
aF0.05148402225241054
aF0.021463584200176595
aF0.0005207629371559684
aF0.03795097989994493
aF0.056382901103351625
aF0.07777945480316881
aF0.07237785293239375
aF0.08957459433599195
aF0.13510515339060067
aF0.14199330583180028
aF0.1394494156704038
aF0.2229058934878252
aF0.3268648079476631
aF0.3580215922959216
aF0.40254280001310533
aF0.4255225380190723
aF0.4402781316800987
aF0.44588650420950643
aF0.4385870297196542
aF0.4721815908491034
aF0.4806943535539698
aF0.4804107249274789
aF0.4774360276663782
aF0.45914750753705474
aF0.4594706114757703
aF0.46000785524612725
aF0.47989350512435847
aF0.4864306754066821
aF0.4900981943346146
aF0.4956325853438866
aa(lp81
F0.028957510323804024
aF0.047720546693230594
aF0.050619656549664514
aF0.051470380457041255
aF0.049896246897995156
aF0.04826602791801959
aF0.058407417786097954
aF0.03675167948371897
aF0.03197199790154368
aF0.0436821241437114
aF0.06368287352269353
aF0.06973048372432261
aF0.08270403405002082
aF0.10023215765531916
aF0.11682847198432002
aF0.1461739783277379
aF0.18443153104372237
aF0.2528411767662096
aF0.3932971289477664
aF0.38069893200157706
aF0.40963042303292446
aF0.4558220824843509
aF0.44236949744735604
aF0.4495459068815024
aF0.4595527754886625
aF0.4786837394985855
aF0.4880689591215052
aF0.4908074683455849
aF0.4795448193976594
aF0.47491331298503453
aF0.4726377836382616
aF0.4769389566725577
aF0.48446892162907035
aF0.4890953473447843
aF0.4932982518357199
aF0.49598406624482877
aa(lp82
F0.05594344372181421
aF0.052154965806767595
aF0.05589217149141418
aF0.05384569542860463
aF0.05148447291955299
aF0.04665149247341802
aF0.03951133422217371
aF0.04701360176413841
aF0.04065156230803311
aF0.02475253597744833
aF0.062097065601038864
aF0.06655020275979719
aF0.0794946686700479
aF0.11033519169068767
aF0.11925549309726591
aF0.1492897601710601
aF0.1627940178795344
aF0.2671750241302391
aF0.3308514011965502
aF0.4074902348574258
aF0.41672861262588623
aF0.43124981524353934
aF0.43883106112629083
aF0.45286481543678353
aF0.46704998358468436
aF0.47282984611101503
aF0.5517125899416248
aF0.4822856618978697
aF0.48280197157804666
aF0.4835612645926423
aF0.48137598245505336
aF0.4861948334470771
aF0.49174696845105875
aF0.4923264070745894
aF0.49483575998413926
aF0.5021629521834301
aa(lp83
F0.054160509979372634
aF0.05711531083654625
aF0.06021995500627982
aF0.06781252116317332
aF0.0399321528885018
aF0.051630394186370186
aF0.05535852358193
aF0.0477679010967586
aF0.041972959386273184
aF0.04274762902757767
aF0.04820080250156127
aF0.03737430030706701
aF0.07710182664371587
aF0.09707986297563646
aF0.1178162117527085
aF0.14876235918555406
aF0.20261447733032165
aF0.2756326521401271
aF0.34012281258790816
aF0.39610451430432825
aF0.42637819141893146
aF0.4271456022094943
aF0.4342399856001664
aF0.41797632324260175
aF0.4862840445074158
aF0.47941119119806874
aF0.481167055753384
aF0.4699190391850781
aF0.4856027745190226
aF0.492338989703693
aF0.4960355905565284
aF0.5117278491805916
aF0.49452872780977647
aF0.4985078128733336
aF0.4933053520686221
aF0.48935536104847815
aa(lp84
F0.03898963057457022
aF0.062130830422001744
aF0.07107175326452671
aF0.05580944707359027
aF0.05882892190242974
aF0.06152489400930359
aF0.05733563349412605
aF0.062179829141513626
aF0.03334089542999364
aF0.029978655888098935
aF0.05126824521684617
aF0.06443961559563557
aF0.0776059007519795
aF0.09520757010729403
aF0.1093747001903876
aF0.12080382176592001
aF0.2103426565790829
aF0.282305244308154
aF0.35295930945263
aF0.4082628455625607
aF0.4222580172411072
aF0.42976432885779836
aF0.42758697611528373
aF0.44883991190633504
aF0.45888033522643307
aF0.4681763911545098
aF0.47164362961943396
aF0.47964554758330363
aF0.49341879682923406
aF0.5040241521293187
aF0.5106514693642181
aF0.4956981811188359
aF0.5170941477117007
aF0.541783969964639
aF0.4465109960144996
aF0.5083507810738968
aa(lp85
F0.06357113544384475
aF0.0691764401897188
aF0.07678000879384293
aF0.06644613879532285
aF0.06703840062972795
aF0.05849512738898277
aF0.055653462829111655
aF0.051837046667506374
aF0.042800985158377214
aF0.044448676062784444
aF0.056641473981848406
aF0.07854612808552403
aF0.08649464021266125
aF0.09510362940979354
aF0.11509263103734514
aF0.1543862023542596
aF0.21030810397491875
aF0.28766488703165066
aF0.3767259539545544
aF0.45489217559407646
aF0.41350832132852405
aF0.4205910392663819
aF0.42935805080640826
aF0.4238398708665951
aF0.4542155861924096
aF0.46756652586898645
aF0.4731168225654098
aF0.48485362969207557
aF0.5017829346053412
aF0.5351182444715041
aF0.5180122663188863
aF0.5297526165517988
aF0.5296396619251804
aF0.5275805075378583
aF0.5356856407029807
aF0.6033334046191933
aa(lp86
F0.07117832044464274
aF0.07223414196368017
aF0.09330938698603113
aF0.0454950312777362
aF0.06211758512877839
aF0.060708233874505406
aF0.057108578761000055
aF0.05443332977821678
aF0.048836741410722855
aF0.013947766967301323
aF0.07329820956384435
aF0.09365528097615905
aF0.09537874815582899
aF0.09811614784252247
aF0.09459271750407455
aF0.16307578624174876
aF0.2160288797407417
aF0.25448846968353733
aF0.3968813022346092
aF0.3649813043628064
aF0.406254047517523
aF0.39964569283917645
aF0.43431215581858984
aF0.4489993437220418
aF0.4664337113764167
aF0.4684716985137401
aF0.4781596540095159
aF0.48629275060107324
aF0.5227726160762056
aF0.5129332490558073
aF0.5253752158336533
aF0.5265462720471769
aF0.537350529194157
aF0.5481639416979935
aF0.553097238666671
aF0.55791449890293
aa(lp87
F0.07230317651496722
aF0.07419436938693987
aF0.06858210686494466
aF0.04525948356347366
aF0.06619827512488796
aF0.060870577768601795
aF0.059110356782097036
aF0.05596491933247121
aF0.06145884110488742
aF0.062397426293358295
aF0.08005550772411434
aF0.13020041834442797
aF0.11358612812146568
aF0.11905900674344273
aF0.13571839979015254
aF0.16747183771828134
aF0.21680924364388732
aF0.2772354025739024
aF0.35868990967139075
aF0.3834856341063131
aF0.40325885019238705
aF0.42236640949132104
aF0.4413516515156742
aF0.4536524874917042
aF0.4516784529756449
aF0.4667629294970476
aF0.44737296712790064
aF0.485900884276504
aF0.4995797852941078
aF0.5089698168329013
aF0.48900841313799615
aF0.5309071190902416
aF0.5411035078362579
aF0.5511263364034648
aF0.5482718719422989
aF0.551758699911003
aa(lp88
F0.06751044232059752
aF0.0736708864749166
aF0.07099449381839013
aF0.071550886199424
aF0.06813310250189294
aF0.07429018366591496
aF0.04155817045732915
aF0.06863720634295033
aF0.06611296750806839
aF0.07101806585092396
aF0.08579060122680045
aF0.10250308480455134
aF0.14101649622315734
aF0.12866295646198594
aF0.14608815767543518
aF0.1708684869763387
aF0.2198889531913417
aF0.2736075612504704
aF0.30905117163040235
aF0.41619429983370965
aF0.4116073632024572
aF0.43044955435639526
aF0.451599746313946
aF0.4901134431608129
aF0.47219608052836376
aF0.4732382272063398
aF0.4764986736946013
aF0.48219744440443
aF0.4913326501600279
aF0.5008683091193301
aF0.5252844815430913
aF0.5373914628228075
aF0.5578623796361237
aF0.5577874654642968
aF0.560561877792815
aF0.5415223735777976
aa(lp89
F0.07879145528993894
aF0.07871736046520007
aF0.07732357592001242
aF0.07718237474824408
aF0.07752425541410261
aF0.10363528913548946
aF0.08258756964114923
aF0.07656300962316653
aF0.07815738865737647
aF0.05401518866136301
aF0.08040257537525757
aF0.0935676744748436
aF0.09498478066450478
aF0.13031195389647968
aF0.15136219749716193
aF0.179983763932687
aF0.2203440736057508
aF0.2705208661545233
aF0.3315402910275059
aF0.38094375486305526
aF0.41705742019013226
aF0.43587990072105126
aF0.4492334051163824
aF0.4904866077724361
aF0.4834147971452704
aF0.4895752284973338
aF0.4950381646046876
aF0.48951081607821934
aF0.4515130569693997
aF0.5073574091399605
aF0.5295701152709938
aF0.5431707124686901
aF0.5528532763200124
aF0.5558232010431641
aF0.5423402747078305
aF0.5572359099413133
aa(lp90
F0.0913556598289546
aF0.08622187715721273
aF0.08711541313614095
aF0.08008159417661637
aF0.08425629373811744
aF0.06081545232170149
aF0.08977364180953766
aF0.08945637212918793
aF0.0851450249143116
aF0.0851362897236771
aF0.0634598276845779
aF0.08930412078146022
aF0.10161298628022576
aF0.13096214466769307
aF0.151822675341306
aF0.18262923989457816
aF0.216536444871822
aF0.27491107448804186
aF0.33886856603804066
aF0.395701426744905
aF0.42511122941531104
aF0.4377609894248427
aF0.4648273606364513
aF0.47794879833663173
aF0.48542534549366456
aF0.5154555203354544
aF0.5158740847079265
aF0.5188549829634791
aF0.5164234316753249
aF0.5322886064763153
aF0.5628209177679462
aF0.526397984872065
aF0.5529369967938333
aF0.6051503810715312
aF0.6045557244806182
aF0.5378196037352473
aa(lp91
F0.11192353801324754
aF0.10627665987385759
aF0.09694950528341077
aF0.0947346514089476
aF0.045502245468888466
aF0.09500100036297375
aF0.10664639450804785
aF0.10482139642764537
aF0.09510256069559413
aF0.09738500277657713
aF0.08788913234327765
aF0.07914512568354799
aF0.11989071240302192
aF0.13655727011033617
aF0.1693254117880725
aF0.1673460084776247
aF0.22346625167736534
aF0.2366455596190868
aF0.37930922673871514
aF0.4060084954538609
aF0.43745335248948386
aF0.4247800821498961
aF0.48440561750870953
aF0.5211849563545216
aF0.5192118153340014
aF0.5317765019835727
aF0.567974801620364
aF0.5722701749358284
aF0.5429557988469891
aF0.5539445629358534
aF0.5652772830790694
aF0.5741842130713559
aF0.5712483083043094
aF0.5813452463595007
aF0.5751297100111591
aF0.5276093548653192
aa(lp92
F0.14408512214480254
aF0.13709342963991664
aF0.12711979287791864
aF0.05704364961604978
aF0.12308966634325973
aF0.11474190442280592
aF0.13510596228545693
aF0.12684337816918106
aF0.10997484628994071
aF0.09830238507958707
aF0.11460190718494519
aF0.1262725029906559
aF0.1463076866072693
aF0.16949954402641723
aF0.18631921706933974
aF0.18187557657092246
aF0.2496628369680859
aF0.29103340631591224
aF0.37370840496365343
aF0.4279132323303045
aF0.4665123479240282
aF0.515913153799023
aF0.5122109726061966
aF0.5242218121283505
aF0.5262120547621625
aF0.5480066809435075
aF0.5500113107725713
aF0.5666863810070062
aF0.557547186712003
aF0.5692304599250546
aF0.5857230713729554
aF0.61833870057984
aF0.5933498074900733
aF0.5904746816404374
aF0.5826239657053801
aF0.571117420889779
aa(lp93
F0.18993222515435404
aF0.18210198411351422
aF0.17709671031484767
aF0.1617789881153311
aF0.14686554093418663
aF0.1766737618518112
aF0.1788069508976696
aF0.13626481615167202
aF0.16541863914667446
aF0.14258803731398273
aF0.11533247437771367
aF0.17437929174106728
aF0.19060849020179224
aF0.19540485240728064
aF0.2291385941471916
aF0.23180516600724077
aF0.30484804583309705
aF0.36425946374738366
aF0.4140554479849326
aF0.46888438747677696
aF0.516802433642233
aF0.5341029940288192
aF0.5553786648217612
aF0.5382378783247712
aF0.5374699155809591
aF0.5415998529995167
aF0.5841413367030457
aF0.6094652787099816
aF0.5492872698732024
aF0.5827309613514059
aF0.5982093661296677
aF0.6057526210728418
aF0.6059710214366764
aF0.6017260232297895
aF0.6061517687174983
aF0.6069291117713996
aa(lp94
F0.24470944503620204
aF0.24844751616818592
aF0.19510800290273755
aF0.23973009929376907
aF0.22822801749034738
aF0.23175121288599604
aF0.25451633113980626
aF0.25495460427234035
aF0.24690647503918584
aF0.21019406586161726
aF0.2188580185327499
aF0.22400161783620182
aF0.23465557715973917
aF0.2721098513816867
aF0.2636819696003297
aF0.32565047851989865
aF0.3740777203315524
aF0.4222065254245891
aF0.42004731672566664
aF0.5420069343123431
aF0.5669118904281845
aF0.608518850766615
aF0.6114834091820601
aF0.5904588642053871
aF0.570040438826871
aF0.6255449268727177
aF0.6350075731900443
aF0.606889132177287
aF0.5408530570727464
aF0.6355434287489324
aF0.6239531976747208
aF0.5629018350096252
aF0.5989989487745523
aF0.6215905429588608
aF0.6113555106894614
aF0.6630532203612258
aa(lp95
F0.33143332784053775
aF0.350851374912588
aF0.3222529514020298
aF0.36837870788134597
aF0.3183482718700282
aF0.3298321009132206
aF0.32853207293547865
aF0.39922071468834713
aF0.33196103629979784
aF0.33732938158316583
aF0.33957876790556824
aF0.3159048830359937
aF0.37560109962364874
aF0.3369552743352095
aF0.3564284527276554
aF0.4063843483516027
aF0.4412831832535993
aF0.49730414115673943
aF0.5606218548692623
aF0.7021842737423953
aF0.7037074581929695
aF0.6780622236150698
aF0.6822339770359376
aF0.6830198799970065
aF0.7198555390064777
aF0.6936959460364635
aF0.7227134435923249
aF0.6956317087975529
aF0.7301966904366897
aF0.7171384512473927
aF0.6881967872915626
aF0.6869310105009143
aF0.7227308582410279
aF0.7101809301461978
aF0.7640655315871885
aF0.726603401999076
aa(lp96
F0.3794377688868454
aF0.37342790219360683
aF0.42013853922362937
aF0.38586513277360246
aF0.3806340652610809
aF0.38008118201997343
aF0.3753138538013883
aF0.4026109836891255
aF0.3713502428772222
aF0.3710723507724043
aF0.37552921377686976
aF0.37722625979722074
aF0.3803180210482437
aF0.3972836273961153
aF0.41687737086698157
aF0.43438871907068816
aF0.49467219779295696
aF0.5618964452074593
aF0.638335997009782
aF0.6987270722036243
aF0.7346975351436019
aF0.7360828384545551
aF0.7595673458857516
aF0.7667833875269179
aF0.7514448790823449
aF0.7575707945945857
aF0.7661547892584705
aF0.7681396367927936
aF0.7929503903686312
aF0.7656131077467201
aF0.7495670394607402
aF0.7626847573748362
aF0.7851731896116294
aF0.7781716598222239
aF0.7609209913459208
aF0.8055972839065675
aa(lp97
F0.3893334464031947
aF0.39961777007454297
aF0.39791626921856904
aF0.4074874003791536
aF0.41168580771095176
aF0.44046975229250146
aF0.4082480822398526
aF0.4046737325577008
aF0.39550637749362344
aF0.4044516223914237
aF0.40360305652490763
aF0.40816147088885985
aF0.41712193895799543
aF0.43369578047637125
aF0.45949885982547256
aF0.4896450841373096
aF0.5239355716111193
aF0.6012998930187589
aF0.715716122808077
aF0.7792445531451871
aF0.7538685420867971
aF0.7732547499445307
aF0.786138631767499
aF0.7916410995086509
aF0.7695202724761507
aF0.8251851530805563
aF0.8103099066152026
aF0.8099751383670326
aF0.8121952595925145
aF0.8086089150643989
aF0.8080458899461928
aF0.8113902531776188
aF0.8190126271071757
aF0.8244498993103851
aF0.8376065053631869
aF0.8420465176734592
aa(lp98
F0.4080498419611949
aF0.41853068619557016
aF0.41286964908277096
aF0.4088958767122341
aF0.44031264688097693
aF0.42631645779272836
aF0.41339059250955645
aF0.42423241983687116
aF0.47072259780041353
aF0.4204120056289978
aF0.4273563802428931
aF0.4291613104762482
aF0.44026591846559304
aF0.46830945900687837
aF0.486364485452865
aF0.5456668974277629
aF0.5528030831140945
aF0.5897674160909555
aF0.7329833728858289
aF0.7485143031025542
aF0.7651813194124285
aF0.8131952690568639
aF0.8305947169704644
aF0.8102124828651759
aF0.8268000475183621
aF0.833434876775204
aF0.8354074322027228
aF0.8434174375226856
aF0.8454413286776488
aF0.8589699454717037
aF0.8421566557489185
aF0.8482905879144113
aF0.8771174552678709
aF0.8624743512618206
aF0.8691487288059986
aF0.8745447098814446
aa(lp99
F0.42587546421261774
aF0.41794990669269866
aF0.4269609457579197
aF0.4264293472628416
aF0.43388051812704126
aF0.4319225637243383
aF0.4310440963204929
aF0.43427932927997054
aF0.43643948863858145
aF0.445524335740164
aF0.46584756717581727
aF0.4529400335431606
aF0.4356029586407052
aF0.4749980608456393
aF0.5105170153717736
aF0.5045086281464104
aF0.5716944572921369
aF0.5947780364071111
aF0.6947004659400867
aF0.7700044288558316
aF0.7762389110136496
aF0.7977239681728882
aF0.8196912305205369
aF0.8100308282273655
aF0.8421539372003695
aF0.853504102995505
aF0.837270134355028
aF0.8651187858811067
aF0.8656341368421114
aF0.8553145800080184
aF0.8877914853326594
aF0.8599292329793039
aF0.8816678881590647
aF0.8852311975364859
aF0.895552389396809
aF0.9181715760922756
aa(lp100
F0.44927200392892375
aF0.4411697210452976
aF0.44464754248149396
aF0.45939828050184145
aF0.44686249333783556
aF0.4318960308961742
aF0.4400721800997205
aF0.4473087587398565
aF0.4577943590768607
aF0.4305448072373121
aF0.4830312350586999
aF0.46412420230947204
aF0.47300641000493465
aF0.4941256797315417
aF0.49000596151639697
aF0.529888469094967
aF0.5630522557678651
aF0.6261241923926625
aF0.735661294233159
aF0.7583672892417072
aF0.7863811604657801
aF0.8148313491609125
aF0.866301847674345
aF0.8553832392316778
aF0.8643981870033387
aF0.8747663774003023
aF0.905910728079566
aF0.9005510103494357
aF0.8852132223913247
aF0.8702806769837265
aF0.7892499443849481
aF0.9100079082758415
aF0.8990878294625045
aF0.9095956896773483
aF0.9162740968863611
aF0.9132245942794007
aa(lp101
F0.4949007154433321
aF0.4639737465640808
aF0.4619620069586376
aF0.4575014717541939
aF0.4518027273126312
aF0.4825024958262885
aF0.4547460612152629
aF0.4571034765908167
aF0.4571594984792891
aF0.46195042382140666
aF0.4625188369181075
aF0.4630453880169112
aF0.4704743613900583
aF0.4846176892615401
aF0.5039457124515457
aF0.5296591142758525
aF0.5281156609426225
aF0.6172404545798158
aF0.6993080623781407
aF0.7746094482183506
aF0.7952964452734088
aF0.8286513575531602
aF0.8742796375278996
aF0.8825648719101237
aF0.879600592282129
aF0.8901070568863321
aF0.9180584693237567
aF0.9056645969328462
aF0.9028826438258539
aF0.8842577295739508
aF0.8821076444128518
aF0.8937434487991655
aF0.9108229597851585
aF0.9201142281228978
aF0.9229910718545615
aF0.9042279772215583
aa(lp102
F0.4681199292273872
aF0.4731248046006669
aF0.4753202973089534
aF0.4912731705834656
aF0.47051740103407386
aF0.4406928704010827
aF0.46434909108159267
aF0.46384930788137285
aF0.46679763280831127
aF0.467706792742919
aF0.4679027698652401
aF0.4620865433648956
aF0.44757377976287277
aF0.47494885532540754
aF0.5225944105666721
aF0.5187120180179924
aF0.5796492895240152
aF0.5975072697322513
aF0.7198614026144506
aF0.7617899008434176
aF0.8042828881012348
aF0.847419051724072
aF0.9415147398625097
aF0.8923372385121788
aF0.8852390530652473
aF0.8883145042505562
aF0.9038288429987179
aF0.8988899551030912
aF0.9330984518301795
aF0.9043260733186274
aF0.9076640626832764
aF0.9202460181515608
aF0.9021136918416148
aF0.9318014084292697
aF0.9388550640519377
aF0.9448315759597362
aa(lp103
F0.46287196555426097
aF0.47327436772735837
aF0.48321785376448484
aF0.4765317109992089
aF0.4772255511721854
aF0.4713467806693546
aF0.4635746010859279
aF0.47724453710139164
aF0.46537388615343867
aF0.480392024991441
aF0.4764651174218855
aF0.4700056543995816
aF0.478491883820859
aF0.45176896981078557
aF0.3898979341669919
aF0.5335234014893683
aF0.5619714058735943
aF0.6254158501825108
aF0.7203406117285692
aF0.7717932341723461
aF0.8068908280413633
aF0.8481008453803077
aF0.8789875257836354
aF0.895933535999192
aF0.9008800964635846
aF0.9030674476667406
aF0.9131973570262937
aF0.9207255524267088
aF0.9190655974126618
aF0.896191886922489
aF0.9321661854990296
aF0.9492342427552741
aF0.9846207186468386
aF0.9590132198057876
aF1.0
aF0.9567355324311406
aa(lp104
F0.4752612060887929
aF0.4244829261680949
aF0.5099697935180727
aF0.49700172639454165
aF0.48414251586049767
aF0.47922110730106043
aF0.48322052266907484
aF0.48332999002879135
aF0.5258188386094902
aF0.4918295718803192
aF0.48101880363049343
aF0.49177905905134817
aF0.4936967113397696
aF0.5088929368799718
aF0.5477576275503708
aF0.5335289320072518
aF0.5983397253452343
aF0.628935574122415
aF0.7237312981143175
aF0.7812966993811754
aF0.8559827518919012
aF0.7847492592330003
aF0.8651188370602707
aF0.9110806304173233
aF0.9085163016021026
aF0.9234384317132052
aF0.9367087296791944
aF0.9398682189016333
aF0.9323206308248714
aF0.9333760406160416
aF0.9531750876491442
aF0.9938618179858032
aF0.9722222222222222
aF0.9736996271586037
aF0.9646978968656666
aF0.9533186922975878
aa(lp105
F0.45924224894403715
aF0.4484681872418618
aF0.47723859691105686
aF0.4950931600389424
aF0.5215004017612418
aF0.4472088750172186
aF0.4784724840387844
aF0.48015385747488815
aF0.4948811178325654
aF0.47625835343388107
aF0.5042245954951353
aF0.4974640751100572
aF0.5017984284723875
aF0.5204388698364828
aF0.5392371564642393
aF0.5792206749095796
aF0.5908356921663289
aF0.6471299805765227
aF0.727940398108542
aF0.8511200766289845
aF0.8709982708200978
aF0.8557857815937623
aF0.8680595831971466
aF0.8775718036917474
aF0.9177148226277881
aF0.9388580383523438
aF0.9943910221235887
aF0.9673653488172601
aF0.9444134189602534
aF0.9438381534057778
aF0.9480275078574101
aF0.9708114431377911
aF0.962488155160154
aF0.9754065698923698
aF0.9924262213715278
aF0.9596980451095808
aa(lp106
F0.4754901393109279
aF0.47028214232194804
aF0.45309978292406006
aF0.516760935285978
aF0.4977969666719715
aF0.48978803794494025
aF0.48530709161966373
aF0.4852694071557963
aF0.5154752832645358
aF0.5032432474104864
aF0.5124542751215462
aF0.4793567147632032
aF0.5106097553488474
aF0.5281198819321531
aF0.540948632926599
aF0.5562732720212954
aF0.5641572409473692
aF0.6194203218483314
aF0.7239997784070112
aF0.7775108051938545
aF0.8496376743366322
aF0.8712490051515797
aF0.8786100903768812
aF0.8967528376702418
aF0.9214550362791986
aF0.9610130889781782
aF0.9441315195174588
aF0.9500377347978012
aF0.9445415569140029
aF0.9463822780925729
aF0.9490027729451879
aF0.9885803750400914
aF0.9989039151179793
aF0.9760464634441898
aF0.966802485243836
aF0.962634632386437
aa(lp107
F0.48035498668657023
aF0.4793460151762181
aF0.485416400140202
aF0.484288126695672
aF0.5245801092019707
aF0.5023370021117328
aF0.499306066497228
aF0.4997880326918085
aF0.49169799620270593
aF0.49944113745927204
aF0.5330238113390475
aF0.47845182462376035
aF0.512657902002734
aF0.5602015329964942
aF0.536877126188076
aF0.508504125414262
aF0.5598337050495386
aF0.638054729818505
aF0.7255499262253484
aF0.7898847952954645
aF0.881832675755581
aF0.8756795351439554
aF0.8950204761484538
aF0.8854798541150251
aF0.9251092335838336
aF0.9654241756893616
aF0.9414930811141539
aF0.9452777394750612
aF0.9413468134131349
aF0.9170311523351087
aF0.9339324961583857
aF0.9431064380014622
aF0.9683276696873383
aF0.9730393324850986
aF0.9695449143950582
aF0.9669408775723592
aa(lp108
F0.48106862214675433
aF0.4937726297452123
aF0.4934680334022796
aF0.5012241169982393
aF0.5051859399039307
aF0.5468711001838655
aF0.5150518944058057
aF0.5215231949412348
aF0.5295817938758545
aF0.47413128971855745
aF0.5059517303946994
aF0.5125357061902651
aF0.522968765695087
aF0.5049184915709823
aF0.5586621878428251
aF0.5493043207252173
aF0.5852164348477654
aF0.6009511580929644
aF0.7207248566734815
aF0.7909287091903693
aF0.8383404525920293
aF0.8750810612646553
aF0.9244630705771069
aF0.9154122017071497
aF0.9203937428019114
aF0.9311614453139218
aF0.9701323309230157
aF0.9459004420960212
aF0.937493061131021
aF0.9427329284229766
aF0.9425219494916456
aF0.9561723069829718
aF0.9623342188891968
aF0.9687575419440678
aF0.9701456286609876
aF0.969121973934611
aa(lp109
F0.5241536443444822
aF0.502541822190915
aF0.503400002032295
aF0.5007762806375716
aF0.5114747261019884
aF0.5168494492422177
aF0.5183544658983584
aF0.5147717748469312
aF0.5062237987655898
aF0.5236181009014945
aF0.5085457657657119
aF0.5161818335331964
aF0.5211993741874267
aF0.5182700475139487
aF0.5322599359135612
aF0.5559218516227412
aF0.5866363568299481
aF0.6832837032561724
aF0.7429107929283456
aF0.7820678216420586
aF0.8332146454220739
aF0.8683498762942047
aF0.9041955918313621
aF0.9254497723795048
aF0.9421682458040003
aF0.9497994049892036
aF0.9436337203835284
aF0.9492303300301286
aF0.9262290973827436
aF0.930270889658364
aF0.960249092946751
aF0.9564834017372225
aF0.9557680093932017
aF0.9745959775546941
aF0.9727479183071156
aF0.9638071319471916
aa(lp110
F0.5090501675091244
aF0.5105063089979766
aF0.5050810043691091
aF0.5029397436908978
aF0.4816120985496293
aF0.5104338541671631
aF0.5128356494792715
aF0.5095044798485694
aF0.5051796933358795
aF0.47209485966198644
aF0.5132038085545861
aF0.5346410333444127
aF0.48522870842195287
aF0.5179662932871412
aF0.503250709237136
aF0.5506002930404136
aF0.5830563988607479
aF0.5861824262781244
aF0.7060584938530683
aF0.7820145707908562
aF0.8317726382844803
aF0.8645172607354485
aF0.9052016000179332
aF0.967314418806578
aF0.9621656553007885
aF0.9722222222222222
aF0.9564021234915461
aF0.9595467680444667
aF0.9514389305338424
aF0.956375601233391
aF0.9510621782817292
aF0.9258605383339015
aF0.9420079504570873
aF0.9581471368162999
aF0.9880349147225673
aF0.9746985740563633
aa(lp111
F0.5198381010507661
aF0.5265561621860729
aF0.4935067470310177
aF0.4994850459597023
aF0.5269170602204033
aF0.5061041115460143
aF0.5098979164480949
aF0.5043189518303476
aF0.5050683851898707
aF0.5064519926480364
aF0.474827455711642
aF0.49846406981385244
aF0.4946805627201562
aF0.5012345306898696
aF0.5349822321708665
aF0.5231091205240447
aF0.5772501358218785
aF0.6035300873432419
aF0.7058109474733018
aF0.7561292757707216
aF0.8417033872443458
aF0.8759272735648261
aF0.9054780754288275
aF0.9304826229878831
aF0.9479659749201361
aF0.9543278289334661
aF0.957900350056024
aF0.9628517529206327
aF0.9595581954385336
aF0.9655162484034624
aF0.9636758047191748
aF0.9500682695712771
aF0.9849920153852787
aF0.9840282146775193
aF0.974996333802317
aF0.9745848345966817
aa(lp112
F0.525002662772825
aF0.5283982480128124
aF0.5101781606640801
aF0.5055584263706849
aF0.5003189442181125
aF0.5039868201383265
aF0.5034051932957861
aF0.4856852000624756
aF0.5306945328029702
aF0.5200436603976236
aF0.5046336431489986
aF0.47874563554538807
aF0.5015535357778367
aF0.5192231216739877
aF0.5350994837670636
aF0.549070659274135
aF0.5793215340442543
aF0.6448589608063154
aF0.8081718174763676
aF0.7594426101272514
aF0.8759285584414976
aF0.893219239915966
aF0.902722592065254
aF0.9207182961164126
aF0.9151637379594438
aF0.958893040359007
aF0.9608493122139661
aF0.9675067740981913
aF0.9942689446140591
aF0.9606701019580983
aF0.9571987739172367
aF0.9460334059458705
aF0.929681300220744
aF0.9664363353214239
aF0.9757322189406623
aF0.9794182170382584
aaa(lp113
(lp114
F0.019050269382264746
aF0.027027860766958366
aF0.11099145711863663
aF0.03528293963486373
aF0.008764702159888903
aF0.0338337852324031
aF0.04057684682674278
aF0.0712848689470346
aF0.058380256270406855
aF0.05687578143992628
aF0.05004441490826592
aF0.06841714653297787
aF0.07891428169972169
aF0.09540720295355781
aF0.12231248492722346
aF0.15183992114983655
aF0.18053210119698807
aF0.19920689737004216
aF0.2874578661607212
aF0.3740519617798333
aF0.3463875875516997
aF0.35285277900686657
aF0.3584294505022464
aF0.36349758496602824
aF0.33892468137257015
aF0.3649897801085977
aF0.3702172327274345
aF0.37874877509532356
aF0.38837258276899966
aF0.40150137250305207
aF0.38653579856998205
aF0.3554153218301501
aF0.3710382397686414
aF0.39975367633466635
aF0.41319471794334367
aF0.4453611231701686
aa(lp115
F0.03829708826581156
aF0.02024292838715582
aF0.04308139375681984
aF0.04636659533723305
aF0.03630713582599975
aF0.04132066860670514
aF0.04221133231596798
aF0.042652123525310934
aF0.0731142501751097
aF0.04762857059411565
aF0.05484349791593414
aF0.06176554427409062
aF0.09636280278952324
aF0.09604062129239808
aF0.13353972632478653
aF0.14249831910987792
aF0.1791255341295237
aF0.228798394164877
aF0.2864189061233379
aF0.3502383900504029
aF0.3451369161606398
aF0.34021398533949293
aF0.33439819432423645
aF0.35967871396961304
aF0.36585200108799565
aF0.3758917699070205
aF0.37694956760387766
aF0.3890681557695992
aF0.36809604439437305
aF0.40340827387031675
aF0.4253566541187603
aF0.428932608708598
aF0.4077661949027197
aF0.4194237398304989
aF0.38579695800186575
aF0.4140895611532565
aa(lp116
F0.034561234328653045
aF0.026517256236439603
aF0.04024959580173182
aF0.04887163577987474
aF0.0446060780164975
aF0.03996824165538708
aF0.04087244876082599
aF0.03949451352760134
aF0.05117458084000584
aF0.044848109148755824
aF0.044998166151504815
aF0.06530040883172365
aF0.07893996899213011
aF0.09348726684417588
aF0.07771729437114569
aF0.1359220451872635
aF0.15780600553147273
aF0.2317325689727335
aF0.31846809025371814
aF0.3044821314078223
aF0.3411285427340053
aF0.35153639009186993
aF0.3695977457934065
aF0.37777916156163716
aF0.36885851258797847
aF0.4109331834463425
aF0.41329555247727773
aF0.38422247586745734
aF0.391525948036852
aF0.4029108247211128
aF0.4097280857622697
aF0.40739849848481524
aF0.4118656191165251
aF0.4869474111845588
aF0.4167346668779493
aF0.40842394080484806
aa(lp117
F0.04251179149357375
aF0.04627817818255503
aF0.04385480059109578
aF0.04216279792551672
aF0.04526489764865823
aF0.03460455181737482
aF0.03738611355593734
aF0.05216933838719337
aF0.0661487714389034
aF0.04424338011729598
aF0.06632892296965888
aF0.05662597401534032
aF0.0692280857364143
aF0.10466723701624077
aF0.10181828209495324
aF0.12855762521293676
aF0.1342285422550631
aF0.23177852008681266
aF0.32146820425720213
aF0.3411011554189122
aF0.3544058223997963
aF0.3695264153393322
aF0.3576497772555359
aF0.37795563478239586
aF0.40010092563409555
aF0.3648629396221677
aF0.3931793840564715
aF0.3873285892157534
aF0.36430279094046214
aF0.34407865575571345
aF0.4037478186849208
aF0.4123176176893956
aF0.3941960115624989
aF0.41376684575393213
aF0.4061252220597135
aF0.40057253717114505
aa(lp118
F0.05853419763021575
aF0.04815233584037197
aF0.04981220684771207
aF0.043861231647276365
aF0.01584877060399927
aF0.034683080637312895
aF0.021926312636385677
aF0.039926043506285855
aF0.03300455842904994
aF0.007292547491587225
aF0.040471728217666675
aF0.04799030810739233
aF0.03314256712000525
aF0.08328528642044049
aF0.09958276424120309
aF0.1264674636230588
aF0.16749982307940975
aF0.2164992647154511
aF0.3097306478560329
aF0.33677972032189085
aF0.38806484352097553
aF0.41248039180859164
aF0.3812082144458756
aF0.37775828656356436
aF0.3894669756424826
aF0.44335693469547727
aF0.38289778514036066
aF0.38389204755727263
aF0.38343843051909593
aF0.3911147859056156
aF0.41208227899924876
aF0.4582147574593014
aF0.4013503347548431
aF0.3993324514991245
aF0.39608540691359745
aF0.39675981747196143
aa(lp119
F0.10112397977007262
aF0.05564668469175948
aF0.04724339381587158
aF0.06826768697803774
aF0.035404753658107614
aF0.03869407430884438
aF0.05054531259965071
aF0.02624285760077713
aF0.03589330458413147
aF0.03078878368590901
aF0.035151313364602546
aF0.0343866574277143
aF0.048398030690373996
aF0.05415195963930728
aF0.06038886524184649
aF0.11470311459771376
aF0.14972125937748268
aF0.15300616954136526
aF0.29933031357297013
aF0.3247792223141826
aF0.35275727423112524
aF0.3365211424168681
aF0.3673729117465538
aF0.3683062570058216
aF0.37709644407441656
aF0.37643450208808504
aF0.37713783410560353
aF0.38368706022006843
aF0.3972902071295869
aF0.4132214734858223
aF0.40878085737648423
aF0.39136797719907507
aF0.3997827933137734
aF0.3930764940168319
aF0.3925946356791567
aF0.36865422632592176
aa(lp120
F0.04976707048886672
aF0.05185791450786552
aF0.04754471928812372
aF0.0490767622354432
aF0.09285832024035813
aF0.024258098031624056
aF0.0684243537148654
aF0.04737115844953142
aF0.06623913178076322
aF0.040072699231952225
aF0.008570525640611138
aF0.07025409187463148
aF0.021049441515961668
aF0.04084632653164226
aF0.04455287360339199
aF0.09429903966178822
aF0.08920740177437124
aF0.18187933427574388
aF0.25678281560884303
aF0.31512175648214785
aF0.335655136101885
aF0.3426314118861986
aF0.35796806277430343
aF0.3598457908999054
aF0.3329903602672539
aF0.36642525798499587
aF0.37763877508343074
aF0.40507155382980603
aF0.41426056010439133
aF0.41141080416271913
aF0.3987512389251047
aF0.39266329620816065
aF0.37287899089793186
aF0.38989472474027753
aF0.4012372148357381
aF0.3969322543838233
aa(lp121
F0.03732208491604727
aF0.03992939948793734
aF0.03793090421347445
aF0.005386754042877949
aF0.05844609742657791
aF0.061019462385885424
aF0.052782778225866765
aF0.04329354538202651
aF0.03953054222921671
aF0.0318445461557584
aF0.033401271262435896
aF0.03253646568358171
aF0.03821305947435256
aF0.045033577695520015
aF0.013013282642791096
aF0.0874189929358565
aF0.11062669852273899
aF0.15751920100680725
aF0.3008105396379827
aF0.31875724577197945
aF0.3425131622312491
aF0.3508960858749393
aF0.35411965871270856
aF0.3565175377756532
aF0.36302222783606986
aF0.37023931492899265
aF0.36131507186971545
aF0.3822533014138905
aF0.3851008852840122
aF0.3953852357137632
aF0.39319453783057107
aF0.3664336678299543
aF0.40953275182960375
aF0.40818728018433753
aF0.4082104289103001
aF0.4139467939208926
aa(lp122
F0.03445312536728909
aF0.029981087537794878
aF0.03492331645789616
aF0.04717546291358321
aF0.05914702993786974
aF0.07773501416152521
aF0.05719926132190028
aF0.046979876251382655
aF0.0
aF0.04209613717415356
aF0.025044994177573377
aF0.039717105866147524
aF0.048911488762736974
aF0.07659026465592056
aF0.06907673858509643
aF0.0948909820302807
aF0.12353160756068884
aF0.20493772504473337
aF0.30339046589330115
aF0.37330621744306064
aF0.35818840332177343
aF0.34731333990962365
aF0.3709612180624657
aF0.3483982967024149
aF0.36514549309038746
aF0.37501065782846815
aF0.37396503125070746
aF0.36006021546707295
aF0.3829488444505011
aF0.38886787025208047
aF0.389325788381994
aF0.39676255941475497
aF0.4058062854755499
aF0.41976735016179123
aF0.4517547570800606
aF0.40780304928709166
aa(lp123
F0.035571406108174906
aF0.03567985988519125
aF0.032588561559295445
aF0.054673313850866635
aF0.10338101632019739
aF0.06632823714440393
aF0.05879933236518548
aF0.05579944281692092
aF0.05641534712908773
aF0.10126165003095589
aF0.0494696786588395
aF0.04592994105626698
aF0.04800819700838084
aF0.06904154781671328
aF0.05993451622037674
aF0.10812973772141556
aF0.14567601277381814
aF0.17931001030234725
aF0.2729191787472063
aF0.350996881673409
aF0.3403671511583807
aF0.3392043051022197
aF0.3244384408139459
aF0.3595203866456527
aF0.3768313331018107
aF0.4112797833960236
aF0.381579832632939
aF0.35332224828915854
aF0.4152208338563341
aF0.3850314380250913
aF0.39417741393293354
aF0.404148868092677
aF0.4122709155952099
aF0.4438414641027692
aF0.4223173939366317
aF0.419740920708238
aa(lp124
F0.03177413980648003
aF0.051181836975343724
aF0.04100989224506712
aF0.05826464858248902
aF0.06720017270980015
aF0.060670010154933764
aF0.048607936034682796
aF0.06333322129452992
aF0.1213902882531818
aF0.03204524661905174
aF0.05439102710982777
aF0.04596461922591911
aF0.059710666795698385
aF0.07516854974384031
aF0.09444960242202408
aF0.1199007990283856
aF0.16002153532579838
aF0.2141389410138772
aF0.27234160009830605
aF0.31685301293857954
aF0.3360134552397442
aF0.34713013564907674
aF0.3331062208240842
aF0.3735849594027816
aF0.38489159826429137
aF0.4018211697496379
aF0.3983734332588319
aF0.38921690267744946
aF0.3593293749960081
aF0.3893623254842926
aF0.4048690636528749
aF0.4128955927445777
aF0.41944170129979647
aF0.4215483775365811
aF0.42081688568167336
aF0.40500081360478557
aa(lp125
F0.04832535235737623
aF0.04698815706173137
aF0.030494656582479664
aF0.058368456376863935
aF0.04518425181196279
aF0.058286514628522246
aF0.037889874381352814
aF0.07177396243537315
aF0.06842862596482985
aF0.04826375423410133
aF0.05542929622402587
aF0.05644540697251601
aF0.06727456841091453
aF0.08318059458041836
aF0.10294324628169495
aF0.11819247549427267
aF0.1655921184143021
aF0.23359941806061826
aF0.2867813509623244
aF0.3259849410388158
aF0.34892219497746335
aF0.33486902598007096
aF0.38501281722894376
aF0.4029663440000891
aF0.4120515941560813
aF0.45050412248066324
aF0.41151339926390684
aF0.3996440955944
aF0.403265053454392
aF0.4037525033577082
aF0.4161330539002153
aF0.4361609540060541
aF0.41279234718280605
aF0.4149918304873731
aF0.4342650354172728
aF0.41806918232599627
aa(lp126
F0.058912467339967856
aF0.057973798174126054
aF0.06171700396041475
aF0.09464304713446361
aF0.06761808136905835
aF0.06221859080865126
aF0.07440755749954327
aF0.06849878698104311
aF0.10424860011909905
aF0.050488338827536006
aF0.08289562183542352
aF0.0750248160197631
aF0.07066449478301012
aF0.09551585961174233
aF0.11470605367815631
aF0.13531244745443058
aF0.18037820470810467
aF0.24299182906751893
aF0.3518350658227022
aF0.33957045197973906
aF0.36648605879429785
aF0.4441830979044671
aF0.4026267522899214
aF0.44192160798915964
aF0.4280923049837147
aF0.4182137770494021
aF0.4245196847537926
aF0.4213366292202127
aF0.42396380587236826
aF0.44265518293335515
aF0.43019928720492145
aF0.4120940109390282
aF0.41298933703112056
aF0.40437359829436065
aF0.41070400195393975
aF0.42519975959141465
aa(lp127
F0.07369053332957969
aF0.07278813334779381
aF0.07635797236106956
aF0.05844957141704572
aF0.08815419629909584
aF0.0731211561167974
aF0.05081541408960718
aF0.07556662572963675
aF0.07446933974596977
aF0.08650945025746293
aF0.08338670358587054
aF0.09610498925112602
aF0.09375827592014517
aF0.10390949642291807
aF0.1317005275351292
aF0.14940154349331405
aF0.1853937947556777
aF0.21718871267794027
aF0.3276935051795724
aF0.3557607701003235
aF0.3899755723525346
aF0.41216586533231947
aF0.42447157807971414
aF0.43249924366917974
aF0.4369060340511299
aF0.43057243609263235
aF0.4304750192092685
aF0.43694104790380744
aF0.44414244614886866
aF0.4408999978676942
aF0.4577310459171049
aF0.4341601269160309
aF0.41898237246827225
aF0.4327760108474827
aF0.43227538532642074
aF0.433120442371757
aa(lp128
F0.09948650055808053
aF0.10156707385094053
aF0.12563952652878224
aF0.10280634919446603
aF0.09977701321737517
aF0.0955907693954148
aF0.08581795634226666
aF0.08783208368196696
aF0.11252025151906427
aF0.09581947368850656
aF0.0966752790174466
aF0.09341645707844323
aF0.1071407946780527
aF0.11476082678662301
aF0.10861872910516551
aF0.15608593623354727
aF0.15819501324700797
aF0.2496496303323661
aF0.31292730682491127
aF0.36834049957510867
aF0.4057459098094101
aF0.42514056568887015
aF0.4383097250359436
aF0.44015996071029956
aF0.4437924078488565
aF0.43145676432601177
aF0.4304940191975199
aF0.45948886735764155
aF0.46297376161008214
aF0.46643520762581303
aF0.4533882359690715
aF0.46282669466013127
aF0.4814597348864498
aF0.45496773096424853
aF0.44687425665737934
aF0.4497863251192867
aa(lp129
F0.12080200981227598
aF0.128373906521902
aF0.11518716242012998
aF0.11754760612374421
aF0.14178190970033602
aF0.1226951036871352
aF0.11922336434800906
aF0.1212905621949149
aF0.1160873331765287
aF0.09991132787447199
aF0.10772714431971331
aF0.11978045256231257
aF0.12363617280247159
aF0.11741233206931011
aF0.1367371710295984
aF0.16626400293367624
aF0.2183128919057126
aF0.2748614615454861
aF0.3080842370851209
aF0.40462716072488797
aF0.4297653916348598
aF0.4577800934306356
aF0.4395204091653975
aF0.46974591047847913
aF0.43064371456181355
aF0.4731604466859391
aF0.49518172247234515
aF0.4879281634466915
aF0.4888290020324159
aF0.4947715262506776
aF0.4899755369982639
aF0.48099310054144506
aF0.4860045358259118
aF0.4866365283044816
aF0.4551513541999197
aF0.4804012962225317
aa(lp130
F0.15686921184130215
aF0.15701391747545185
aF0.15021500376034222
aF0.15861673457273473
aF0.14997020730123697
aF0.15661037902252578
aF0.13982494276494103
aF0.15721909025495961
aF0.16267417092949912
aF0.10271401031597682
aF0.13981538464914228
aF0.1471805529768901
aF0.14686206364958074
aF0.1456235173716381
aF0.1552467685041643
aF0.1848143861108646
aF0.2169701463082096
aF0.3472015307472889
aF0.3922357691358622
aF0.4151458808907151
aF0.4933637042782973
aF0.48675335602081915
aF0.4923312858487313
aF0.5339385410451093
aF0.5324142898001186
aF0.4966739999843155
aF0.52273395328712
aF0.5210381512166907
aF0.5243961272828735
aF0.5377523928963222
aF0.5374459680632316
aF0.5277480423036508
aF0.5296168868130577
aF0.5314097527192541
aF0.5233850363413749
aF0.46602140726294605
aa(lp131
F0.18085615701813038
aF0.21877875501857927
aF0.21730547031286962
aF0.17982867491441223
aF0.2043141205020613
aF0.1743256996149384
aF0.21234490063733494
aF0.21653298164284598
aF0.1842221059705633
aF0.15953404333649002
aF0.20694964291663295
aF0.17518087815046998
aF0.15868074393315454
aF0.18936081856573717
aF0.13821684277626545
aF0.24803636645552543
aF0.3177016159174631
aF0.39098540866403786
aF0.46486558440108383
aF0.5327153879992016
aF0.5348814800544278
aF0.5920506473300648
aF0.6340589568204825
aF0.627389037634285
aF0.6394951461870773
aF0.5820809442159159
aF0.6024891848168117
aF0.5243830464228391
aF0.5940107178129234
aF0.6036730218568519
aF0.5714847738757142
aF0.5986851057516437
aF0.532961299599482
aF0.5967093133340104
aF0.5927862033012334
aF0.5878632420401232
aa(lp132
F0.29012158579618
aF0.29013960426791396
aF0.3108223670576731
aF0.2786244465517131
aF0.25847378931687803
aF0.28708435587803577
aF0.2700997545148598
aF0.3077269425459177
aF0.30578096753682205
aF0.2621112261656432
aF0.32199756107329286
aF0.34584839259754263
aF0.24870995212210847
aF0.24818733291907832
aF0.27401887544195713
aF0.3254103859319342
aF0.3722650994166909
aF0.4567641715076891
aF0.5591160770623992
aF0.6184587365536357
aF0.6692752540366155
aF0.6956310254877951
aF0.7304654312032212
aF0.9061604367122107
aF0.7310854552316157
aF0.6920777176412392
aF0.664318703936189
aF0.6615659777194944
aF0.6669893614626137
aF0.6781277103641637
aF0.7170497681854288
aF0.6717830847029542
aF0.706573891509173
aF0.6791033879302514
aF0.6787817710774555
aF0.6802936639385585
aa(lp133
F0.3168293268714404
aF0.31229110036989033
aF0.3230774290447876
aF0.3156173309232823
aF0.3174849075514522
aF0.31383799757636843
aF0.3193289204958753
aF0.3327502714649391
aF0.29042773933504173
aF0.31065247797227596
aF0.31515722770008386
aF0.31854274793482246
aF0.3166469061591803
aF0.3140764296009571
aF0.3464878080434226
aF0.3832634376161633
aF0.4411180946691925
aF0.5095049410109675
aF0.6155855163328119
aF0.7507640009108171
aF0.8064212446572145
aF0.7570937612515488
aF0.8103138621629784
aF0.8196801431509222
aF0.8081708120907557
aF0.7575477368638812
aF0.7328986038576876
aF0.7427387282527864
aF0.7460878245490352
aF0.7697253645768081
aF0.7505858947175363
aF0.7596145288883764
aF0.7623652572089793
aF0.7810332405926225
aF0.7814073523973611
aF0.7632026411332206
aa(lp134
F0.40510155681265986
aF0.3399913187983043
aF0.33514108913698887
aF0.40451208050548654
aF0.3525608227700358
aF0.3450047805167621
aF0.3599967005613071
aF0.33593173659452347
aF0.32867331011438305
aF0.32633430696907956
aF0.3294178865835579
aF0.32953786544378433
aF0.3379915307025598
aF0.35565819846635766
aF0.3851599917646566
aF0.4280481923154973
aF0.48184721179500367
aF0.575722727092883
aF0.6991746486693352
aF0.7365543283162853
aF0.7719789731941074
aF0.8400481553076928
aF0.8394561107066523
aF0.8814412660851466
aF0.8409684151404087
aF0.8195095653756487
aF0.8090001973288495
aF0.8355326028595254
aF0.8067296964064051
aF0.792330625646851
aF0.8054285092009161
aF0.81226971064761
aF0.8533099471278894
aF0.8339229256611937
aF0.8479569050746183
aF0.828640662527799
aa(lp135
F0.3592454457043726
aF0.33094414291564256
aF0.33939073722761337
aF0.3726334687763987
aF0.37543946046579446
aF0.36259392227638493
aF0.35614368778593564
aF0.35240008145838775
aF0.34380175975517174
aF0.33939165596043086
aF0.3454061557017382
aF0.3424651574433701
aF0.32705237771267315
aF0.38188558079911195
aF0.43423522308065404
aF0.45363072964177087
aF0.5053667505258465
aF0.5648465301004402
aF0.6756082682405589
aF0.7561501571347893
aF0.7989638120132406
aF0.8392690957434024
aF0.8658034180763975
aF0.8926622871872298
aF0.8780407581014722
aF0.8628799007782407
aF0.8603461700731004
aF0.8558148754719441
aF0.8520561831545236
aF0.8568753197315145
aF0.8480636531324754
aF0.8572904020641633
aF0.8635506053379118
aF0.915436383974661
aF0.8656358603453648
aF0.8855532041951382
aa(lp136
F0.3606089071789747
aF0.36197355412823123
aF0.3811023427292753
aF0.40420435418689105
aF0.3866647746112994
aF0.37229537833407805
aF0.3658146923107589
aF0.3663169744438904
aF0.3570785224740985
aF0.33583381249483224
aF0.3399654208223273
aF0.3398996669188156
aF0.38732273141246504
aF0.40007885441838903
aF0.42760291128952993
aF0.4625548352599115
aF0.510175196153786
aF0.5720530568981982
aF0.6694593194412584
aF0.7534928491904094
aF0.8153284567028772
aF0.8602000911654237
aF0.8865616031218944
aF0.9262722699697132
aF0.9016855061691198
aF0.8952988720117666
aF0.8951154151859698
aF0.9100659056159228
aF0.8841165588997926
aF0.8808939310978565
aF0.8882911787611333
aF0.894112941792741
aF0.915515183319045
aF0.8950908525236215
aF0.897923840370283
aF0.8929452273071766
aa(lp137
F0.37259789437454216
aF0.372538772352274
aF0.3799911102110534
aF0.3844057777185905
aF0.38111421399766815
aF0.37731017027780583
aF0.3828069926041385
aF0.3555232813690352
aF0.37609754158747105
aF0.3809968917129108
aF0.38346898646359845
aF0.39534510705138
aF0.37743668569134337
aF0.41830637314027325
aF0.4365798452042605
aF0.5056334210691157
aF0.5085469343345427
aF0.5621912724183897
aF0.7038231658326943
aF0.7619051461888808
aF0.8334330838759489
aF0.9050585043663567
aF0.9274822111732908
aF0.9142575941039562
aF0.9218920489117408
aF0.9373961950821486
aF0.9522603500978551
aF0.8898038615446813
aF0.9178136131211425
aF0.9150761948587973
aF0.9132288845730836
aF0.9425542020730461
aF0.9264992555836619
aF0.9410263311934944
aF0.9105582128340878
aF0.9343269393910792
aa(lp138
F0.3706736395429559
aF0.37453192074688485
aF0.37526141507126914
aF0.38389516123990586
aF0.38318087721861044
aF0.38785887556555876
aF0.3890646965944103
aF0.39846366975644704
aF0.3918079689369742
aF0.42129040580844734
aF0.4317228624941999
aF0.41949406209210155
aF0.4181015855302115
aF0.4343709717426477
aF0.46429294585354614
aF0.4843083853373403
aF0.523276347794135
aF0.5659027869511429
aF0.731368247596786
aF0.74694397307502
aF0.8305046743381236
aF0.8835303775892885
aF0.9143873359993164
aF0.9276852740034893
aF0.9368254782865739
aF0.9358467291495237
aF0.9280162206551401
aF0.8932602776036201
aF0.9649565420542272
aF0.9323866517438204
aF0.9295303367227887
aF0.9293303170355462
aF0.9534024689123624
aF0.9418765941896944
aF0.9669551801110327
aF0.9282644149295202
aa(lp139
F0.37384206048226326
aF0.35487153281451583
aF0.391131754653173
aF0.3623304366034489
aF0.3891129599594916
aF0.40101338111367957
aF0.4008933264627335
aF0.4007353399186416
aF0.3977286853904684
aF0.40492444358061347
aF0.39926930335177385
aF0.4444265997344382
aF0.4153516498165937
aF0.4389176673711261
aF0.46053872924742284
aF0.4402465861857839
aF0.5364066647601655
aF0.5840291230468485
aF0.6824568115935966
aF0.7857870116734098
aF0.8340686386328593
aF0.8853841287826519
aF0.9311510090312901
aF0.9372449052079296
aF0.9382401903788714
aF0.9379768811583815
aF0.9327700956204236
aF0.9455333956050561
aF0.9541863742157018
aF0.9244785158713195
aF0.9381598795343329
aF0.9393651750931946
aF0.9409790037431978
aF0.9363544878765058
aF0.9269794386816754
aF0.9606933804627009
aa(lp140
F0.3816726649443185
aF0.3825623655799996
aF0.3513442578567477
aF0.4251946277798582
aF0.3882721816445826
aF0.3822027819642247
aF0.38935781409033093
aF0.39558363411628505
aF0.40747240280546343
aF0.3998715472891497
aF0.3903120455316272
aF0.43378834067497807
aF0.44585460603440213
aF0.4494407658617531
aF0.422115369068673
aF0.4911527548204404
aF0.5325422857453151
aF0.5796947282718914
aF0.6915308728709051
aF0.7730496825059683
aF0.8467560058464264
aF0.914413657246025
aF0.9214878970634155
aF0.936791303368814
aF0.9396871188009657
aF0.9480329669212528
aF0.9420033388489824
aF0.9330554887596284
aF0.9852140598463582
aF0.9553522680056947
aF0.9195901125673464
aF0.9735827862357836
aF0.9383791956122413
aF0.9040469931840597
aF0.918319000081428
aF0.9271517238786876
aa(lp141
F0.38571665054565674
aF0.40928590792449615
aF0.38388414651052527
aF0.3831005030468073
aF0.3805681783839519
aF0.32367601700469323
aF0.37987645723735053
aF0.38695728332145196
aF0.3902332231972464
aF0.3920917328562501
aF0.41011995829945225
aF0.4189160353759147
aF0.4360313846697843
aF0.4854728533050334
aF0.49040092302207294
aF0.5043135729477539
aF0.5465990249855284
aF0.6169668599572294
aF0.7353665001823585
aF0.7744059959839553
aF0.8595548902995381
aF0.9209338479803613
aF0.9243604933465212
aF0.9544224249227624
aF0.9397264633704229
aF0.9170144199811693
aF0.9391652859547428
aF0.9835167712355587
aF0.9665097933835484
aF0.9610992041112261
aF0.9546469482094061
aF0.9464496257912804
aF0.9383095043320616
aF0.9298032352149352
aF0.9368468448296753
aF0.9309569324351626
aa(lp142
F0.3910827162734501
aF0.3855682871204728
aF0.37281865028630906
aF0.37985252964597077
aF0.3735024603880261
aF0.3764180109023534
aF0.37996686522803047
aF0.3924132427111455
aF0.3475679905521948
aF0.38438758465516315
aF0.39666222157578634
aF0.41092283877295566
aF0.4325920258295294
aF0.4417548076135143
aF0.4903929300640878
aF0.518536951379658
aF0.5483474044205926
aF0.5877360367690928
aF0.715278482965577
aF0.7700780362767574
aF0.8021278243329647
aF0.9020975013342729
aF0.9180523871307379
aF0.9249972329532368
aF0.9380405582915851
aF0.9524897522967715
aF0.9536795783586127
aF0.9670700675076209
aF0.9755897677945012
aF0.9717749464573456
aF0.9603343783751696
aF0.9484595364427962
aF0.9210625289216009
aF0.9390005875953066
aF0.9355288417020126
aF0.9331424781679616
aa(lp143
F0.388779378441479
aF0.38491953555408404
aF0.3770216885948761
aF0.3799431583179601
aF0.3771989044180462
aF0.37410148159667994
aF0.4093449111633777
aF0.38772385690228134
aF0.39687174970752886
aF0.35276836321695026
aF0.3809998726914329
aF0.40185426271858
aF0.417539651878632
aF0.4546982657660933
aF0.5128374934939698
aF0.5182513745433631
aF0.5404559888028194
aF0.5672419075474938
aF0.6884831224809208
aF0.7625894845545567
aF0.8165851740842025
aF0.8924768577178097
aF0.9030352237827712
aF0.9224585631773657
aF0.9407272444453997
aF0.9494755371516294
aF0.9267787118166061
aF0.9937803258488503
aF0.9980912245205973
aF0.9998306375808383
aF0.9583162594330393
aF0.9543699681159975
aF0.9520025716108489
aF0.9483831499175732
aF0.9425457282752294
aF0.9154483595842615
aa(lp144
F0.3902679567785186
aF0.39057712008012496
aF0.38327396243594103
aF0.3830903952456536
aF0.3811782782674033
aF0.36120483484371363
aF0.4060394186331766
aF0.39079767488429756
aF0.3790238753004962
aF0.3747159485605994
aF0.37959874750858635
aF0.35004678693764835
aF0.45252750420359783
aF0.461523242845807
aF0.4889273660332841
aF0.513632498545957
aF0.5150162492332236
aF0.5537404807327485
aF0.7367437240991113
aF0.7586591955023706
aF0.8134580701304649
aF0.8586921468141235
aF0.903767248957605
aF0.9021882106829365
aF0.9485973546062113
aF0.9731795616732687
aF0.9607785450274606
aF0.9664500358350777
aF0.9802909091232995
aF0.9813620335400813
aF0.9728992978549525
aF0.9626674734821649
aF0.9591785847226506
aF0.9595234841542215
aF0.9548895428382637
aF0.9503856434099829
aa(lp145
F0.3908128935832718
aF0.39405766015002636
aF0.38638733744337167
aF0.39040176584347297
aF0.3894495020985065
aF0.39411373288431845
aF0.39314534000301904
aF0.382104518827618
aF0.37544695091696006
aF0.3761838576469945
aF0.3613036623508534
aF0.43043675196014075
aF0.42585588613110353
aF0.45754205797095276
aF0.4792291844617198
aF0.5109932830499897
aF0.5371524172719174
aF0.5581284599176244
aF0.6749674576180529
aF0.7578662092831727
aF0.8119558486722228
aF0.8808973286280063
aF0.9036011657092822
aF0.9664237980205999
aF0.9770553208726925
aF0.9567311382613525
aF0.9576012892810176
aF0.9606746563523644
aF0.969031897949547
aF0.9723056212632877
aF0.9999990363422473
aF0.9658949848432679
aF0.9654141066261495
aF0.9674469197121628
aF0.988828135949214
aF0.9684563668953206
aa(lp146
F0.36017123948573615
aF0.3855282702904256
aF0.4020590731943915
aF0.3760308969469102
aF0.4232916719127326
aF0.4071543359738573
aF0.39063894576656094
aF0.34817870967013836
aF0.36697161604525075
aF0.38994024788843007
aF0.4110798028294769
aF0.42080312860754765
aF0.4340801284688542
aF0.3968170894861032
aF0.4872816186756832
aF0.5124112786189936
aF0.5490567997821709
aF0.5804706122428598
aF0.6984130571097953
aF0.7538373010262552
aF0.8116019143592264
aF0.8561801538439484
aF0.9018642070870035
aF0.9567563885492811
aF0.9361726656187769
aF0.9538747500861754
aF0.9544452083181195
aF0.92753265589582
aF0.9675872456880377
aF0.9810671663505434
aF0.980608581598307
aF0.9664450759695
aF0.9695524452741983
aF0.9459894053936314
aF1.0
aF1.0
aa(lp147
F0.3765191046622298
aF0.382232827508241
aF0.38900448480428745
aF0.39654370182271054
aF0.45116426901004947
aF0.40468354690761943
aF0.40845775211340063
aF0.3845923923198975
aF0.3900538383040519
aF0.4068323284649819
aF0.4787866515674893
aF0.4213611118277977
aF0.39948393259543047
aF0.4450793914328888
aF0.48511270949882934
aF0.5015906268003685
aF0.5361256657564227
aF0.606795596778457
aF0.695950898281421
aF0.7544443011519009
aF0.8222056159863681
aF0.8501402944878679
aF0.8631326380307475
aF0.9145489713911632
aF0.9641338694609406
aF0.9232005268179807
aF0.9850644454523366
aF0.9700362747322033
aF0.9742937862584127
aF0.9841165714759784
aF1.0
aF0.9761597750273814
aF0.9722264447187634
aF1.0
aF1.0
aF0.9711714016388581
aa(lp148
F0.3705825068571173
aF0.37752871777904595
aF0.3906135105777288
aF0.39720330758410055
aF0.3671225189397204
aF0.3911352024963215
aF0.3948236337719385
aF0.3988883326584237
aF0.40501445124027136
aF0.3893109949751315
aF0.43070449595874216
aF0.4327827758879107
aF0.43353794892308106
aF0.4145285311720029
aF0.4625032974825436
aF0.4436679829591371
aF0.5321182018246718
aF0.5658878252468386
aF0.6993353121855914
aF0.7665963138831668
aF0.8200250716465052
aF0.8613556021148255
aF0.8615769769075224
aF0.9073102042705598
aF0.9254187082008872
aF0.9206838913968358
aF0.9652465163204058
aF0.9781878430653899
aF0.9840428776343082
aF1.0
aF0.9779426235016594
aF0.9714302841243704
aF0.9734806717710403
aF0.9779003643409182
aF0.9770970303025683
aF0.9942593650520064
aa(lp149
F0.35152544156856363
aF0.36085271442809586
aF0.3936983188889179
aF0.3850368790657249
aF0.3764008618929201
aF0.3720647035786879
aF0.3924113137240473
aF0.401148501864744
aF0.4106085836789185
aF0.41092935004937603
aF0.41844216573300147
aF0.4279171531330317
aF0.4569816551723485
aF0.4701977888140936
aF0.4551244916018009
aF0.4844869149733377
aF0.5244031673478625
aF0.5978504289815106
aF0.6781148285574278
aF0.7610285404579897
aF0.9302999873632005
aF0.8692908293268974
aF0.8735135783650928
aF0.9373062288113707
aF0.9260846741103043
aF0.9397106294540692
aF0.9611256488241154
aF0.9957158414278073
aF0.9878819058042082
aF0.9795905112799294
aF0.9459892802976704
aF0.9659796107793235
aF0.9607925617069841
aF0.9655988548452892
aF0.9758582973189093
aF0.9653080071147058
aaaa(lp150
(lp151
(lp152
F0.000553608937124793
aF0.0011922888173078396
aF0.002834362883337628
aF0.005314702906317249
aF0.008972892822063105
aF0.008194683496597003
aF0.008631775306489078
aF0.009361455909113914
aF0.010370989868043908
aF0.014435076689845599
aF0.006224840215243697
aF0.0047435438027516545
aF0.003556987953439326
aF0.008272131057705495
aF0.031109303256081577
aF0.07439951357495131
aF0.13907406502341196
aF0.217788787852095
aF0.29936603645036797
aF0.372930617683189
aF0.4315192703224564
aF0.4651854667702544
aF0.48102993450679266
aF0.487267782804544
aF0.48306254580591557
aF0.4850698084285804
aF0.4899609716171238
aF0.48824519064947486
aF0.485597023158995
aF0.48241641996682166
aF0.47731053240425936
aF0.4788688156768232
aF0.4858062599172114
aF0.4846213601359677
aF0.4825097277044792
aF0.48172110157228765
aa(lp153
F0.0004949003244058154
aF0.0
aF0.0
aF0.0064970013908493595
aF0.006907590870506065
aF0.007919920110233713
aF0.009442657506806002
aF0.010226793763739165
aF0.010378395544535022
aF0.008965426914455702
aF0.03685656053010447
aF0.00743244923382962
aF0.0
aF0.0
aF0.01684339210031365
aF0.07196862623444587
aF0.13964087863933924
aF0.21931987398064448
aF0.3019509068929347
aF0.37612848529127363
aF0.4338627067722647
aF0.4905216842521935
aF0.47756006422532266
aF0.4814961291177819
aF0.4635967846432757
aF0.49604943666099405
aF0.4908060846843849
aF0.48821571776820094
aF0.48577691340250345
aF0.48252259066263914
aF0.480319526271046
aF0.46187953741649596
aF0.488842185312844
aF0.4810520673548418
aF0.48478615250199697
aF0.47508207219368526
aa(lp154
F0.0
aF0.0
aF0.0
aF0.006932736980404238
aF0.0017880350275608437
aF0.008974859772350486
aF0.012907734824606937
aF0.011696747201240228
aF0.011654002468999947
aF0.013940727192834847
aF0.008106842618352917
aF0.0
aF0.0
aF0.00922038343510345
aF0.0
aF0.07190763835636971
aF0.14135556155904372
aF0.22221875562783153
aF0.3058259414346789
aF0.3827847545671157
aF0.44222927037746756
aF0.4788476654883707
aF0.49266356119634075
aF0.4808879764500907
aF0.4845425048637657
aF0.5115079169433384
aF0.4926119869115759
aF0.48876253124065494
aF0.4822121454863053
aF0.4851245641547582
aF0.4805138329736758
aF0.4834299547684191
aF0.4861422936766951
aF0.4854482264960651
aF0.4501499252050101
aF0.4722531360752424
aa(lp155
F0.0010494783639349468
aF0.0
aF0.0029058010478506396
aF0.0
aF0.010706393024551541
aF0.011732193793832774
aF0.013348577467619964
aF0.013405838389669222
aF0.013479822602386273
aF0.011291534725069198
aF0.010832511637710929
aF0.010031035794805519
aF0.012552889463385902
aF0.04250618694613486
aF0.020859642752901836
aF0.07398342261161069
aF0.1450247044054248
aF0.22454113849734422
aF0.30649994553578724
aF0.38233589370161947
aF0.4693594190539783
aF0.49377890631165516
aF0.47423869089977616
aF0.48500198110394216
aF0.48998709081033853
aF0.49257401953859464
aF0.4915394029064446
aF0.48773564128981745
aF0.4856466456902168
aF0.48378001383895736
aF0.4833402628011019
aF0.4828952718899165
aF0.4842677880515205
aF0.47816603703664246
aF0.4755673132416791
aF0.4729330030148482
aa(lp156
F0.0019421920174692315
aF0.0
aF0.00495203118170776
aF0.009190073231210497
aF0.03513568545217897
aF0.011974030047611077
aF0.011521837435564368
aF0.011282271499751376
aF0.0112315706663695
aF0.011401102003585996
aF0.013742844550949665
aF0.018066908504674063
aF0.016905760456670145
aF0.0
aF0.010200581115578831
aF0.08045134935972072
aF0.14963586364121947
aF0.2252535357493547
aF0.30269512299784507
aF0.37529163624013
aF0.43326055666363744
aF0.4650247766414282
aF0.47720691502441664
aF0.4750912908548856
aF0.5077712621912834
aF0.48472559539587307
aF0.48660609705525076
aF0.4837415702941031
aF0.4847161636230868
aF0.4841998797804306
aF0.48373869157307453
aF0.4830112521348992
aF0.47888459930927685
aF0.4823384824826298
aF0.48242966510346036
aF0.4815177612298567
aa(lp157
F0.003719067273213313
aF0.004929653061000194
aF0.0072764276502369175
aF0.012544980462825163
aF0.0
aF0.012390142630540805
aF0.010583311634131544
aF0.009817000317318691
aF0.009262255932179516
aF0.011428569155753179
aF0.014138254418007139
aF0.01954863510119509
aF0.01766227940965873
aF0.020813321650039122
aF0.01937466642887086
aF0.08866337294919324
aF0.1541324413495232
aF0.2245424790679225
aF0.2965927098552334
aF0.3630601503669912
aF0.41775796455901437
aF0.476553904099725
aF0.47076205910378954
aF0.47680878891705875
aF0.4807401228077352
aF0.48251266024745726
aF0.48353335004607473
aF0.48335959280325813
aF0.48285017904875444
aF0.4832604488454016
aF0.4862677501404406
aF0.48589848786762024
aF0.48116088524506306
aF0.4823441650186866
aF0.4853051882517876
aF0.4833869359715151
aa(lp158
F0.0047305376102634985
aF0.005802414469435572
aF0.0074758240572799515
aF0.008060314990178237
aF0.009708082647428227
aF0.01123779764878323
aF0.010397569275238818
aF0.009200420970537396
aF0.008244718028337976
aF0.010685126825674051
aF0.013148675303125334
aF0.015499299394554843
aF0.01841612508851485
aF0.0328033890204486
aF0.051898975619397825
aF0.09634070650998611
aF0.15696061319305535
aF0.22368138672797752
aF0.29199895586046126
aF0.35552796486404686
aF0.4088330453436446
aF0.4443294344017214
aF0.46764271078737935
aF0.4819700506850639
aF0.4811634204937205
aF0.4824502440722285
aF0.48246898721404435
aF0.4823316410291649
aF0.4803224072160364
aF0.48228822706768026
aF0.4853767651259977
aF0.5074171409656855
aF0.4854420904777021
aF0.4820925615896145
aF0.48315335486652344
aF0.48360802216028725
aa(lp159
F0.005029438438755344
aF0.005553895634419971
aF0.00697791463068614
aF0.008473628021174495
aF0.011746621680625768
aF0.013217563716660134
aF0.01052851493472239
aF0.009272588726638517
aF0.008905104570372023
aF0.009759371917186942
aF0.011737941333365217
aF0.01725742661671583
aF0.016976360007980845
aF0.03129588952673991
aF0.050285177389079116
aF0.09731456210467115
aF0.158195597040957
aF0.22296381546515273
aF0.2900327349362941
aF0.3517857005404996
aF0.4024642024269842
aF0.440096883471738
aF0.46353249996994755
aF0.47652229468530843
aF0.48223168750967355
aF0.48406727003518274
aF0.4828016339449677
aF0.48281896476585057
aF0.4815718583536295
aF0.4793406299437642
aF0.4842485486864054
aF0.4794051661264387
aF0.48462721618856347
aF0.48263468968717427
aF0.4828876436136373
aF0.48336237815682814
aa(lp160
F0.004326678502722295
aF0.00471567912113661
aF0.005297422917932084
aF0.007962821234538297
aF0.012182258583809754
aF0.010563175296743688
aF0.01031827242752766
aF0.009331472228635099
aF0.008685566630134216
aF0.00793373645083577
aF0.010540220518091689
aF0.010060517369240402
aF0.04235825485470652
aF0.03654008269792347
aF0.06024871255346161
aF0.10129231951721201
aF0.15770558956445935
aF0.22292397982669432
aF0.28990711969653354
aF0.3542103214501535
aF0.40192869226983596
aF0.44684111631147916
aF0.47351956940366646
aF0.4771790730103989
aF0.48478047861979195
aF0.4880518284183806
aF0.48868528359265473
aF0.48184843035402314
aF0.48311315952245565
aF0.4823080664702439
aF0.4809365110911798
aF0.4804961314635363
aF0.48017839441968935
aF0.4813830222785019
aF0.4829916145842332
aF0.48422664561831485
aa(lp161
F0.002833860712823731
aF0.0034825317506770397
aF0.004860813917282912
aF0.006460297994152823
aF0.005335402843004196
aF0.008272115038489168
aF0.009285904920204317
aF0.008608249391951641
aF0.008795686242114372
aF0.008235567879140256
aF0.01280105582615112
aF0.007993711296340461
aF0.018643392040575753
aF0.03203355460048644
aF0.04799815822356602
aF0.09312033420457255
aF0.15704087117021512
aF0.2242591826988172
aF0.2928710445231435
aF0.3552843221319822
aF0.43489118987498826
aF0.4500409000470685
aF0.4716402167792358
aF0.47858645215658413
aF0.4795089601523414
aF0.509695144037454
aF0.49273957303897825
aF0.48699623875723036
aF0.4853812933288133
aF0.4836890152848787
aF0.480803297662439
aF0.4786530909549265
aF0.47758408393119584
aF0.47843839547855666
aF0.48486213372815423
aF0.4901301883212971
aa(lp162
F0.001776182542563643
aF0.0
aF0.0
aF0.010849970737980158
aF0.005075906136828903
aF0.0
aF0.008129041447703276
aF0.013515239010174832
aF0.009179128978853422
aF0.013166564680515844
aF0.03543889132975786
aF0.011094721814975917
aF0.0
aF0.016958038404517012
aF0.044408170751325006
aF0.08755599922289044
aF0.15728885638673426
aF0.22883250047653628
aF0.2997329498665066
aF0.3662262733253499
aF0.41748766046557
aF0.4540757341016926
aF0.47434698073151144
aF0.4828947347885717
aF0.4847958987426019
aF0.48866923939858586
aF0.4846805849801285
aF0.4888239783381019
aF0.4875722402706717
aF0.48550076647959073
aF0.4826480780396107
aF0.47781643154087017
aF0.4790681428712453
aF0.46579695471085036
aF0.5098026161416966
aF0.4888797434799315
aa(lp163
F0.0025645188983911046
aF0.0
aF0.0
aF0.006993572402106345
aF0.03400740976639381
aF0.0
aF0.00906234699241641
aF0.01193367258423274
aF0.012106369782565794
aF0.011463463996375886
aF0.008538483791718432
aF0.008774686615742088
aF0.0
aF0.0
aF0.0
aF0.08510031303217176
aF0.1593493513010427
aF0.2361013189785989
aF0.3128515649031152
aF0.37826958702840474
aF0.42915401068362047
aF0.4649985437097383
aF0.5077516006461518
aF0.4810374453424176
aF0.4854573089251508
aF0.4815642830889965
aF0.49165551228235244
aF0.4904113803818945
aF0.488010215733426
aF0.4883872834700473
aF0.48605434781478185
aF0.48334199432328634
aF0.4863319890624807
aF0.4849882402071162
aF0.494210676918756
aF0.49411971057193743
aa(lp164
F0.0
aF0.0
aF0.0
aF0.008427536318857629
aF0.011128193385904823
aF0.010323576846063014
aF0.014105800073068026
aF0.012118067856761151
aF0.015078512958027356
aF0.010637820326840963
aF0.0076267976249051435
aF0.008689875704092534
aF0.0
aF0.0
aF0.0
aF0.08219152014729098
aF0.16255474088277921
aF0.24686290254324472
aF0.32562473241603773
aF0.414649618814282
aF0.450145367323393
aF0.4804185778788184
aF0.4996846625152461
aF0.4828431811869984
aF0.4893233415947727
aF0.4925094470624433
aF0.4938170323334923
aF0.49279379450465055
aF0.49398504359206385
aF0.4902424202237608
aF0.49218988397168234
aF0.48988510571765326
aF0.4581374627551395
aF0.48766121074349994
aF0.4990770178026865
aF0.5024047983168788
aa(lp165
F0.017182398681129765
aF0.0
aF0.0030702395811397602
aF0.0
aF0.012313485704534504
aF0.0
aF0.0
aF0.022690009437354514
aF0.02054429643857159
aF0.01338813857329233
aF0.0
aF0.0
aF0.0
aF0.011458375029068024
aF0.022330007253430234
aF0.06282043564249769
aF0.17369038473503476
aF0.2612931093818377
aF0.340992744235666
aF0.40502581682914257
aF0.4557943852043946
aF0.480701113813705
aF0.4962211919929136
aF0.4614655025159454
aF0.48143054946426794
aF0.4997011389385279
aF0.501668596226375
aF0.5001286337763294
aF0.5005425078178009
aF0.5010173465317308
aF0.49795937796856776
aF0.49165649082159746
aF0.4945906069252517
aF0.49117151826408084
aF0.5201995280763384
aF0.5064477472816532
aa(lp166
F0.014171493610605587
aF0.0
aF0.0
aF0.0
aF0.011065649442443206
aF0.01746308797111107
aF0.02671101762235924
aF0.010898017390396184
aF0.030158022624749443
aF0.02624154481560917
aF0.027777777777777776
aF0.0115318165119314
aF0.010789680067616431
aF0.0
aF0.0
aF0.10263959573498166
aF0.1959257929911691
aF0.28384467214005543
aF0.35919089779397023
aF0.4227057889898334
aF0.49791086076719043
aF0.47861924474135514
aF0.4858317568457509
aF0.4916395982416903
aF0.508110907982557
aF0.5235540443229053
aF0.5184411194906843
aF0.49262241476148316
aF0.5182354604445183
aF0.522672258334223
aF0.518113598772136
aF0.479327718010781
aF0.5035931541780597
aF0.49477216763991383
aF0.4997767815973038
aF0.5128112996820356
aa(lp167
F0.02055155322594916
aF0.032768767125739104
aF0.01941794325747902
aF0.01931010991210208
aF0.009590171834776715
aF0.02996994066034483
aF0.049264552039366305
aF0.06204147348200704
aF0.03505454662251714
aF0.05049398461291226
aF0.03260342224971749
aF0.006740158029377809
aF0.009928725116261687
aF0.046776933767123496
aF0.0
aF0.14033569298043436
aF0.23422158436802495
aF0.31585151693276886
aF0.38680501506434406
aF0.44530008933980314
aF0.47907468967423766
aF0.47513538381703524
aF0.48578643363744867
aF0.5161027227653355
aF0.5054518903057906
aF0.5081506569580159
aF0.5393018304892583
aF0.5251052766711745
aF0.5513055235144487
aF0.5538932280310473
aF0.5421875008917653
aF0.4783708174507323
aF0.5237097949719222
aF0.521278559797819
aF0.5222587306640792
aF0.5302891576784646
aa(lp168
F0.0011584062957394614
aF0.038739737799271756
aF0.0
aF0.05147512346215442
aF0.06191518174046159
aF0.06415986824896637
aF0.09317659516002641
aF0.09921463555313999
aF0.10070822500349437
aF0.0969749471086499
aF0.08487912454143902
aF0.09151785549302995
aF0.09823764877557371
aF0.10664944856457526
aF0.11365133410667565
aF0.20233740724981641
aF0.2852716001382978
aF0.3589639538147871
aF0.4235523607878229
aF0.47584715339307126
aF0.5077247714848689
aF0.5258095876333102
aF0.5180904941677167
aF0.5512591226356487
aF0.5637151265812875
aF0.5736584405995026
aF0.5851733105189818
aF0.596298220259762
aF0.6027385585564581
aF0.6056366096445306
aF0.5952025977393779
aF0.5848517645009657
aF0.5685370597407059
aF0.5053287409290014
aF0.5661097965281429
aF0.5728167284304718
aa(lp169
F0.11645766406354435
aF0.11533139812701909
aF0.12141790216028998
aF0.11824002427114998
aF0.06402847855802711
aF0.13839967888282415
aF0.15374911945773326
aF0.16051285710063679
aF0.1619328251118429
aF0.16242271880075523
aF0.16513092197519308
aF0.1696599762677903
aF0.17913828727350614
aF0.19542948036481644
aF0.2296367863480513
aF0.2811581114537665
aF0.3458252096661251
aF0.4101987699024057
aF0.4693709473885595
aF0.519221075799171
aF0.5578978399899462
aF0.5837759272143889
aF0.6034663838302411
aF0.61586871994009
aF0.6080104220890687
aF0.6395887420412699
aF0.6516749233691687
aF0.6606643470136956
aF0.6672800155129827
aF0.6694305402783667
aF0.6671998698724405
aF0.6592698697664794
aF0.6440547313467041
aF0.6365728370060686
aF0.6346812041561334
aF0.640714924238898
aa(lp170
F0.21550099992527363
aF0.22172171059667609
aF0.21779957392921734
aF0.2123646943472056
aF0.21489444325036391
aF0.2210103959532348
aF0.23223727830719154
aF0.2340872970156446
aF0.2344423747052856
aF0.2368433867791311
aF0.24210643741920398
aF0.24961375842768593
aF0.2614071974818226
aF0.28136166103731547
aF0.3147614015665097
aF0.35678977174927134
aF0.4095470982999701
aF0.46651247514708305
aF0.5229908418838961
aF0.5751569437500267
aF0.6203614059663787
aF0.6563891816765971
aF0.6818521682402457
aF0.6960305450942976
aF0.7059942413413648
aF0.7141203988050339
aF0.7238499287149115
aF0.7311926526549671
aF0.7368308915636178
aF0.7401617181330696
aF0.7404232073985418
aF0.7377375662495264
aF0.7332912972208169
aF0.7291344012070841
aF0.7265154049698364
aF0.7256113222021088
aa(lp171
F0.31302863295539435
aF0.3140014600802669
aF0.31510407287176156
aF0.31489126879329393
aF0.31702752939254636
aF0.31656241962321463
aF0.31444999025877657
aF0.3094437116007664
aF0.31097047364821145
aF0.313183665585446
aF0.31861711583326147
aF0.32473031880758657
aF0.33743441078505576
aF0.3565586663755127
aF0.38403188372162456
aF0.4216746564288685
aF0.4683957382674712
aF0.5222635735228001
aF0.5796953967289626
aF0.6368511751004055
aF0.6900156963643127
aF0.7340627754409405
aF0.7648069810110908
aF0.781525666780584
aF0.788680229828696
aF0.792535407976854
aF0.7964143823336954
aF0.8011686994827767
aF0.8058016877879556
aF0.8098165346884221
aF0.8128250479756204
aF0.8154806073500024
aF0.8225521089071868
aF0.822660654405015
aF0.8202540744742314
aF0.813247443888911
aa(lp172
F0.39625480650076444
aF0.40015641010572206
aF0.4013681934932205
aF0.40572830369048885
aF0.40245508965717985
aF0.4238466629617604
aF0.3832839129691535
aF0.37491786126124255
aF0.37628454373412995
aF0.40341047134299746
aF0.3834038445997498
aF0.3906476203159546
aF0.4066802908729829
aF0.4186753927056263
aF0.4412878587814036
aF0.47348164692135003
aF0.5183958381277542
aF0.5733641907490085
aF0.6353859150569293
aF0.6996176272584762
aF0.7606159776325959
aF0.814132346840815
aF0.8479114803499875
aF0.863387665451044
aF0.8639768764906552
aF0.863294307905707
aF0.8629477985926278
aF0.8641622604844915
aF0.8670964177907307
aF0.8729282858449784
aF0.8783569568705575
aF0.8883526333990215
aF0.8980952073625609
aF0.9520976313231848
aF0.8978899852433327
aF0.8919116167926285
aa(lp173
F0.46399607719901187
aF0.47138418363827556
aF0.495146315157845
aF0.4598225286325577
aF0.5077553919950497
aF0.4480993425833018
aF0.4317542648198854
aF0.42189625336219844
aF0.4240109619233677
aF0.4303704597748157
aF0.43897023760033926
aF0.44668707249733547
aF0.4595008917809773
aF0.47485892508048005
aF0.48041666519512083
aF0.5119009962124244
aF0.5552658894474504
aF0.6153893157492988
aF0.6849877946952785
aF0.7571869151607963
aF0.8282737092830642
aF0.8878945620659243
aF0.9558999147784832
aF0.9384156039453214
aF0.9281152038158732
aF0.9234443296845792
aF0.9196194051571441
aF0.9147422806367761
aF0.9162798981511399
aF0.925856483899998
aF0.9446457181147553
aF0.9405173112247724
aF0.9835216034196708
aF0.9549843746379749
aF0.9719106944198845
aF0.9494174025219139
aa(lp174
F0.4827810179712006
aF0.48595894160917547
aF0.4911755737375607
aF0.4721598607335677
aF0.48100361487736404
aF0.48224452802902773
aF0.45895016035151
aF0.4525592685638611
aF0.4530731815398161
aF0.45985323145040696
aF0.4925313310845076
aF0.47796981513193626
aF0.5211844885576795
aF0.4849766914107087
aF0.4941684268879041
aF0.5263936277009743
aF0.5758829710625161
aF0.6452304038485157
aF0.7249764518383998
aF0.8039719545431055
aF0.8812870088603284
aF0.9798396648975699
aF1.0
aF0.9833558823325775
aF0.9732147155494321
aF0.9951773666613138
aF0.9574092286021104
aF0.9511561741860551
aF0.9547886774683142
aF0.9607036176349754
aF0.9624084607289198
aF0.9793239028953097
aF0.9816872677674215
aF0.984605718028709
aF1.0
aF0.9801922780721503
aa(lp175
F0.48596959719191607
aF0.5071013647260127
aF0.48376758059821595
aF0.49435763399727445
aF0.4878237630431275
aF0.48602191480507956
aF0.473361737422552
aF0.46767144799823396
aF0.46845014570086546
aF0.4758964177301033
aF0.48527653331354653
aF0.4895085557416962
aF0.48587501395864646
aF0.4808558068585649
aF0.48150318867290276
aF0.5148931093387508
aF0.5691625045561225
aF0.6649851709009944
aF0.7532123505174719
aF0.8359033776136388
aF0.9153891595376168
aF1.0
aF0.9877762103978641
aF0.9893872821286419
aF1.0
aF0.9863102345437635
aF0.9804801726280497
aF0.9729915906062718
aF0.9783446396170689
aF0.9758952161434018
aF0.9810687003265991
aF0.9876608903620334
aF1.0
aF1.0
aF0.9919082993124096
aF0.986211055758241
aa(lp176
F0.48652843958986147
aF0.4775871354858973
aF0.43180087142956963
aF0.5099222727788693
aF0.48963216466829323
aF0.4830458883246897
aF0.47862540660264113
aF0.47612567452059257
aF0.47760773695258435
aF0.4803216606111454
aF0.4859568111878087
aF0.48510584626930164
aF0.48206293690815416
aF0.4921332290338832
aF0.4462869749725421
aF0.5092861540961235
aF0.5795347297439803
aF0.6802340465656315
aF0.7710160651221981
aF0.863118603171619
aF0.9331799795783216
aF1.0
aF0.9867422430630876
aF0.9895636113994849
aF0.9902564557932946
aF0.9889023589099204
aF0.9850172959364029
aF0.983975694511026
aF0.9872901185231845
aF0.9865035408427437
aF0.9928921372066096
aF1.0
aF0.9955444655682978
aF0.9909119576093827
aF1.0
aF0.9923581657111384
aa(lp177
F0.481510548760373
aF0.4806549481351174
aF0.4835568504901362
aF0.4822119019533677
aF0.4874722873408586
aF0.48340716376788634
aF0.4804928290570189
aF0.4795942444608647
aF0.4798340192640494
aF0.4852754437514133
aF0.48242427671285304
aF0.48573744094851357
aF0.4838995318612059
aF0.4854787055009129
aF0.5109711647211614
aF0.542826909460666
aF0.6109631210570169
aF0.6934414198816344
aF0.7816317684198267
aF0.8670544005210502
aF0.9850268961142723
aF0.9919697249363623
aF0.9794603678372162
aF1.0
aF0.9909641904711552
aF0.9905709205087411
aF0.9868846011554785
aF0.988112513860464
aF0.9878537074721553
aF0.9917388185502555
aF0.9943446237912105
aF1.0
aF0.9954511176025914
aF1.0
aF0.9927630309843191
aF0.9899567262846878
aa(lp178
F0.48809403651835553
aF0.4894350818571032
aF0.4863745172182201
aF0.48497307368977166
aF0.4817307493771777
aF0.48231399373416517
aF0.48170918117903755
aF0.4856343147057756
aF0.5092109828742521
aF0.48108806690377964
aF0.4858036716527103
aF0.48096917470763556
aF0.486915395108394
aF0.4941246765374448
aF0.5093119773163451
aF0.5595765362738051
aF0.6246477208618462
aF0.7037214311703172
aF0.7872688641752769
aF0.86999230750237
aF0.9303928345956239
aF1.0
aF0.9819140887811102
aF0.9861623777696188
aF0.9904602037528494
aF0.9916602783056785
aF0.9904503154481298
aF0.9902264294519715
aF0.9913458110910888
aF0.9928937429972552
aF0.9949168279985631
aF0.9941890961030441
aF0.9947887395869129
aF1.0
aF0.9963388939392686
aF0.9674719587156426
aa(lp179
F0.4975877329009554
aF0.49078325394186795
aF0.48988443825780964
aF0.4600519970146645
aF0.48648692081013084
aF0.4851856743529271
aF0.4841789313802514
aF0.4835921588015651
aF0.4869579522407573
aF0.4819833297944376
aF0.48370838396607035
aF0.4849490984967007
aF0.48504374885741935
aF0.4913906702787518
aF0.49998885153760586
aF0.561753208041305
aF0.6304056032849611
aF0.708937369756336
aF0.7903899442278647
aF0.86605211386564
aF0.9326162015936915
aF1.0
aF1.0
aF0.991209517067026
aF1.0
aF0.9922292050341475
aF0.9915758818321785
aF0.9916065901908288
aF0.9925858306332983
aF0.993808855851061
aF0.9946490274999628
aF0.9963902141695006
aF0.9722222222222222
aF1.0
aF0.9951507012205143
aF0.9964400304622961
aa(lp180
F0.49386293681110605
aF0.49353228987789105
aF0.48649551429344745
aF0.48479542240702916
aF0.4876313437601231
aF0.4867367773205924
aF0.4859817878251484
aF0.48565921225592207
aF0.4848918207469952
aF0.4847872920680318
aF0.48547735106054657
aF0.4858664783293283
aF0.4867070624439111
aF0.48850884860143523
aF0.4957007822899271
aF0.5594096684284892
aF0.6326710176954894
aF0.7118394431746765
aF0.792084039464461
aF0.8668476876834097
aF0.9384359463797137
aF0.9772954764031407
aF0.9890379402756175
aF0.989661724620421
aF0.9922631382958135
aF0.9926756760658703
aF0.9914718923406253
aF0.9919940327690485
aF0.9932354736685575
aF0.9943782430215938
aF0.9949977920569069
aF0.9936900230978535
aF1.0
aF0.9954705758499118
aF0.9983541291710892
aF0.9971269324046762
aa(lp181
F0.4935235859584632
aF0.4933799002505126
aF0.4906065831263426
aF0.48812112895477444
aF0.4885791392208004
aF0.4884392990037412
aF0.4873069729362347
aF0.4867322761134258
aF0.4862396316783326
aF0.4842116033798249
aF0.48649595379927457
aF0.493185792568999
aF0.494831384611586
aF0.4759649736983578
aF0.47729105034367103
aF0.5601452900879891
aF0.6324387361922645
aF0.7134959631235814
aF0.7936909290325116
aF0.8680167889286169
aF0.927055668407453
aF0.9653995411273265
aF0.9867504099735593
aF0.9896068174748548
aF0.991129344552216
aF0.9915349306994501
aF0.9916121373998273
aF0.9921716605481993
aF0.9946413521006714
aF0.9952996443745743
aF0.9946628314891245
aF0.9961176722064621
aF1.0
aF1.0
aF0.9979877802937094
aF0.9959272126985731
aa(lp182
F0.4931080543464678
aF0.469543365798232
aF0.48731881991939385
aF0.4600074348205617
aF0.487955317851416
aF0.4882440393246763
aF0.4884443777105012
aF0.48819501349934363
aF0.4874073646622996
aF0.4866943526801703
aF0.4886668419641495
aF0.49488849631110626
aF0.523087934773264
aF0.5094009580497225
aF0.4985051142528961
aF0.5641604534846628
aF0.6332732305977999
aF0.715158506129284
aF0.7968290505323457
aF0.8712221443454783
aF0.9316381941292508
aF0.9748485520051912
aF0.9856033112211954
aF0.9894504964237568
aF0.9919707504603615
aF0.9926502659200439
aF0.9929213387782849
aF0.9926314637169583
aF0.9932429902973147
aF0.9934729748515219
aF0.9938335794288355
aF0.9953280820080043
aF1.0
aF0.9966794915946218
aF0.9889674055454224
aF0.9962085832481171
aa(lp183
F0.4884792634018125
aF0.4974331855518221
aF0.48740601050145926
aF0.48561950429330597
aF0.48937659421457563
aF0.48826514439484264
aF0.4879071909694068
aF0.48767541329277103
aF0.48740969676502055
aF0.48465503793279946
aF0.4887792261447787
aF0.49175690024822233
aF0.49925780656910207
aF0.5074674512144851
aF0.5274765813841855
aF0.5644747752472893
aF0.6320953603736575
aF0.717424325996672
aF0.8033297334901279
aF0.8831944777768072
aF0.9402965787112345
aF1.0
aF0.9847610518266903
aF0.9901138491782611
aF0.9922984350568836
aF1.0
aF0.9940437754298975
aF0.9934604343876648
aF0.9930152467007471
aF0.9924842151361394
aF0.991918760668236
aF0.9925228580636724
aF0.9873670095939437
aF0.9444444444444444
aF0.9865778849779075
aF0.9915382347469143
aa(lp184
F0.4914789042581546
aF0.4900356043912593
aF0.49166000356253553
aF0.49119671961642347
aF0.49000455290827455
aF0.48879636302593693
aF0.48664052916943784
aF0.4871603901002753
aF0.4875994511074779
aF0.4889934791910489
aF0.46156144933320836
aF0.4878348999204092
aF0.49106647258256336
aF0.49966886681670114
aF0.5165427493896907
aF0.5315124454810607
aF0.6287346470763195
aF0.719663215070914
aF0.8174454995928683
aF0.900981901123437
aF0.9600419440646477
aF0.9835677081796038
aF0.9908346459304357
aF0.9900665995184198
aF0.9942690761472592
aF0.9928818999031152
aF0.9948203917596204
aF0.9951297629548544
aF0.99366349116637
aF0.9905943072283789
aF0.9916542356769279
aF0.9867514690397318
aF0.9947538997779081
aF0.9888476202806163
aF0.9957467266139539
aF0.987557807162788
aa(lp185
F0.49505277579506496
aF0.5006526525403773
aF0.4655550050687182
aF0.4950379210158465
aF0.4877041352556653
aF0.48413687252578974
aF0.48279070705936483
aF0.48699282510129804
aF0.48923836249313796
aF0.48726642068819137
aF0.48713355101882333
aF0.49112521041157553
aF0.4928595912148916
aF0.4904763914649906
aF0.47747076481594397
aF0.5451620210489834
aF0.6176190347167733
aF0.720361115291371
aF0.8292423171860027
aF0.9632293034527675
aF1.0
aF1.0
aF0.9854894686572705
aF0.9929849028578034
aF0.9917697069747055
aF0.9907857614702277
aF1.0
aF0.9927961265567787
aF1.0
aF0.9919977544443762
aF0.9917650635371255
aF0.988532104120342
aF0.9920108149340034
aF1.0
aF0.9722222222222222
aF0.9895340544448077
aa(lp186
F0.49722010730909466
aF0.4849423516457657
aF0.4912894864847069
aF0.46455457855593224
aF0.4802002700919131
aF0.4763447317705876
aF0.48142117436014903
aF0.4901140830053797
aF0.49026822683750065
aF0.4945059811106111
aF0.46727252197063096
aF0.5185040232722508
aF0.522764751727166
aF0.4965530840087354
aF0.5105344594324759
aF0.4783578465310684
aF0.6167508491196848
aF0.7185278553174864
aF0.8306933285991374
aF0.9663509738869461
aF0.9976777737283731
aF1.0
aF1.0
aF0.9887799817360468
aF0.9722222222222222
aF0.9892872923879749
aF0.989952969208101
aF0.992214666937707
aF0.986355065441192
aF0.9888866395429377
aF0.9930779017705679
aF0.9944959366087643
aF0.9914405173967406
aF1.0
aF1.0
aF0.9913579829461797
aa(lp187
F0.4642640508632587
aF0.46406050456426334
aF0.4915728930033938
aF0.5166763562779241
aF0.4722965763368041
aF0.47614418711668116
aF0.4865257922828733
aF0.4878214468392742
aF0.4903783977540236
aF0.488589074071788
aF0.5000910820710733
aF0.500469801010692
aF0.4741253629625509
aF0.49859099941097884
aF0.47821769637783984
aF0.5457959652479515
aF0.6122823315204353
aF0.7170365102907728
aF0.8272442446370254
aF0.9166518701981115
aF0.9674062278657174
aF0.9729398570951293
aF0.9842253385270373
aF1.0
aF0.9881546089717077
aF0.9903425417197735
aF0.9909295217445406
aF0.9921245198005528
aF0.989955369697624
aF0.9898892885058013
aF0.9908557446384949
aF0.9877801334056817
aF0.9884372639477916
aF0.9953575928467057
aF1.0
aF0.9971064674635182
aaa(lp188
(lp189
F0.0015476869766306773
aF0.0029640579565929103
aF0.006595181825058086
aF0.013159163950744394
aF0.021511740316282175
aF0.034714409257454296
aF0.05389543986183475
aF0.07886691056158757
aF0.10855586537867412
aF0.13991721093091886
aF0.16821589724725716
aF0.1896451274169345
aF0.19990797695140525
aF0.19439471667097563
aF0.18329602818677881
aF0.18879655890413471
aF0.1985909054664784
aF0.20614058528556983
aF0.21054349438194148
aF0.22370974025043036
aF0.24315700973275017
aF0.27137673714228283
aF0.3052242675468647
aF0.34032181438134745
aF0.36577192378627
aF0.38323884940086544
aF0.39263192916187717
aF0.4050953205104222
aF0.40907888266485964
aF0.40815813328238143
aF0.40316248773752017
aF0.4027874355990522
aF0.3980220413935882
aF0.3781941973885521
aF0.4100983429990145
aF0.4209239696745113
aa(lp190
F0.0016789632505689888
aF0.0
aF0.005300023325314963
aF0.011895971685119305
aF0.020836210394428584
aF0.032645105193452144
aF0.05161117428857459
aF0.07967836516168668
aF0.10969191387280292
aF0.13960377808788274
aF0.17122159595978884
aF0.19236651021012138
aF0.20598751476070293
aF0.20856459735493876
aF0.16981034067611
aF0.18953117098766026
aF0.21744731328225841
aF0.19935535869862123
aF0.20306805418409332
aF0.21915214997668575
aF0.2426525547790179
aF0.27301485247137447
aF0.3057215508297931
aF0.341942341036554
aF0.38669830009625566
aF0.37722909565531043
aF0.3959051725310523
aF0.407133776639407
aF0.42652291807326487
aF0.4018219806130266
aF0.40054797126523595
aF0.4023299927312691
aF0.40818046973049693
aF0.39869998190748945
aF0.4264474716289763
aF0.43279186721089685
aa(lp191
F0.0
aF0.0038796948875600636
aF0.0056467224526052144
aF0.0
aF0.022462039009002167
aF0.008215634865384285
aF0.05386500651427586
aF0.08191382994369827
aF0.11165100320007809
aF0.14348177566708575
aF0.19079287041066822
aF0.19669673105286695
aF0.20593822592595024
aF0.17371663809211524
aF0.20426480406015218
aF0.23237882668509424
aF0.1875965303614569
aF0.1983675342547006
aF0.17139065195801473
aF0.21513277797907035
aF0.2456534546219273
aF0.2750184835517892
aF0.30733048190059303
aF0.34307447269315533
aF0.3876560710312173
aF0.3873256134428971
aF0.39966527051669515
aF0.42219996834593715
aF0.4128296424750754
aF0.40512075177604795
aF0.3999876893395761
aF0.3808459248952626
aF0.42494706740811944
aF0.4289508274929136
aF0.4028264679950499
aF0.3984559348246652
aa(lp192
F0.0056465352252182644
aF0.0
aF0.010553133993216125
aF0.017290682046084194
aF0.02629106281993049
aF0.04142805068716506
aF0.06043226156819004
aF0.08704325121574007
aF0.11454533040289146
aF0.1428833527419706
aF0.1662496048757741
aF0.18126506955869073
aF0.20463318653437895
aF0.17845214188256353
aF0.18359355030969793
aF0.21706075529546248
aF0.20246593062353443
aF0.1983961411802011
aF0.2085007670201703
aF0.22034872982100673
aF0.2511771794150482
aF0.2798115555174818
aF0.31066602641607394
aF0.3426874901491548
aF0.3679315057885348
aF0.3865965653209074
aF0.40051410157160167
aF0.42571992543300924
aF0.4113637159676958
aF0.40428025783102656
aF0.40186750636775836
aF0.4033273064074466
aF0.4001602624220682
aF0.40921961499070303
aF0.41535734731347584
aF0.4027006967421179
aa(lp193
F0.012145137777482709
aF0.01221614434777357
aF0.017032970033218173
aF0.028720796662944376
aF0.04019229982076742
aF0.05440280628895455
aF0.07150304695290549
aF0.0939918659744066
aF0.11799480014042175
aF0.140329592167083
aF0.15657397496876477
aF0.17463909047361945
aF0.18868509822867366
aF0.20364446706528538
aF0.18177140874133846
aF0.18616092256553352
aF0.16683589838022916
aF0.20759931794395517
aF0.21950441179747862
aF0.23893784637023982
aF0.261243066184531
aF0.2879299155825985
aF0.3162944634545634
aF0.34362033308708795
aF0.36675963745313195
aF0.38473952946948614
aF0.39885076518292273
aF0.40135995109971834
aF0.4108157657916245
aF0.4096782862058001
aF0.40836216320003377
aF0.40703239164571303
aF0.404307638174971
aF0.40164761931667287
aF0.3957097983511609
aF0.40347105330134964
aa(lp194
F0.021030422084314496
aF0.02184088811683224
aF0.02987367283456435
aF0.03988464771006644
aF0.05242966641799052
aF0.06724021573922156
aF0.08423746144005308
aF0.10353078326279928
aF0.12400886225887497
aF0.14288930017877652
aF0.15749566628723896
aF0.16847108377804396
aF0.1792007094872752
aF0.18630093791179636
aF0.1629960274216135
aF0.19127126029223207
aF0.2028844169688017
aF0.2115027455831269
aF0.2332682425350895
aF0.25234085412346546
aF0.27423482472062166
aF0.29858761848141085
aF0.3243561825224795
aF0.34895026478744445
aF0.37014396603728844
aF0.3861691247147685
aF0.39916109909942926
aF0.40699881535380733
aF0.41275338046395743
aF0.41556478774719885
aF0.41512299654586604
aF0.4136325120302458
aF0.41054121454727305
aF0.40655183920687926
aF0.403457379549437
aF0.40407849984029437
aa(lp195
F0.03393077138674663
aF0.0364714768684247
aF0.04260666054613511
aF0.052821267673176554
aF0.06586567360141764
aF0.08105347154760856
aF0.09753604026681752
aF0.11537095157621957
aF0.1337271401071564
aF0.15076062737068038
aF0.1640912861117625
aF0.1714341804230105
aF0.15576980606983992
aF0.18480331956582982
aF0.1664941970472359
aF0.19730035425072381
aF0.21229507510866166
aF0.22894758943918328
aF0.24482565510335275
aF0.26734037138752603
aF0.28875932603428095
aF0.31154511827396064
aF0.33500402462621315
aF0.35742820310943313
aF0.37661472590095557
aF0.3936190074071239
aF0.40622630899563034
aF0.4148712749493381
aF0.42031225217010837
aF0.423429059314622
aF0.424393580870831
aF0.423259140747737
aF0.4201074753538742
aF0.41623481659164147
aF0.4097023379256785
aF0.4120269801594884
aa(lp196
F0.04935031087006416
aF0.05179070123412801
aF0.05813671855298227
aF0.06843828380244256
aF0.08179076983172452
aF0.09704671891461704
aF0.11329976871538998
aF0.13043213302882747
aF0.147709757335477
aF0.16381343952555316
aF0.1764968558434579
aF0.18298370916730924
aF0.18758585815661136
aF0.19383002169706062
aF0.19355333640421168
aF0.2039515980414348
aF0.22389683057711485
aF0.24356080404620864
aF0.26361799075513276
aF0.28372879590949074
aF0.3046801096592668
aF0.3262935025604703
aF0.34819417045964535
aF0.36927067568194455
aF0.388345344167599
aF0.40416498628622016
aF0.41753547611424824
aF0.42705334344944584
aF0.42879414220278494
aF0.4351350010375463
aF0.43692712183921184
aF0.4366506158956649
aF0.43312404222147055
aF0.42430363949053745
aF0.42313039726404905
aF0.42280165894899113
aa(lp197
F0.0685648853180176
aF0.07099720457975951
aF0.07724934925786874
aF0.08714410127113399
aF0.09994468575038984
aF0.11463359288404629
aF0.13058587753374917
aF0.14751249378976047
aF0.16483437248532937
aF0.18137746097943908
aF0.19519181969628155
aF0.2044019056243261
aF0.20969912109456154
aF0.198069036321508
aF0.19301147908892863
aF0.21294337996469384
aF0.2372566706406106
aF0.261250242193878
aF0.2813870868766866
aF0.30222973972044714
aF0.32225721644993605
aF0.3429851295346878
aF0.3639192355422367
aF0.38440484101932176
aF0.4031333987818375
aF0.4186371277015583
aF0.4281412757855467
aF0.41472328641112827
aF0.4432744093939773
aF0.45135919173156624
aF0.45315657576734086
aF0.45386864889887213
aF0.4512025106563035
aF0.4458471937881728
aF0.4165000455238325
aF0.43995830495027505
aa(lp198
F0.09015826169093699
aF0.09248074244279218
aF0.09827615803987726
aF0.10722656217345035
aF0.11888712702269118
aF0.13271012453560208
aF0.14842591692293916
aF0.16572580142644944
aF0.18417560964905588
aF0.2026959741431542
aF0.21976082817596956
aF0.2322634752336019
aF0.24119127763360212
aF0.23731004249474288
aF0.2326606115170741
aF0.24326288199128676
aF0.23601713458177348
aF0.28086887635472974
aF0.30315805326644335
aF0.32221377647928956
aF0.34110017628538314
aF0.36114910241798137
aF0.3817041789051277
aF0.40216013139165696
aF0.4210996695783757
aF0.4369401493975679
aF0.44671525851734656
aF0.45580433569678025
aF0.4631314425876812
aF0.4708760937369332
aF0.4740262006919121
aF0.4748314475527485
aF0.4738057596475973
aF0.46949272982218454
aF0.46868919891129296
aF0.4716829175542537
aa(lp199
F0.11213532938963398
aF0.11413112891171236
aF0.11911510154271525
aF0.12675113206629823
aF0.13709501044498193
aF0.14997713442812868
aF0.16556031498521454
aF0.1837004530807803
aF0.20425369341229724
aF0.22616707118799573
aF0.24788381872561482
aF0.26762291703463964
aF0.28614799760792176
aF0.29176494941779835
aF0.28880292027248866
aF0.2570709712203903
aF0.2923134567755709
aF0.3096868612789367
aF0.3279652106249487
aF0.34415103709989153
aF0.36110067045748834
aF0.3803700021446501
aF0.40096618347026225
aF0.4220947442698093
aF0.44193307651831043
aF0.45897755784065103
aF0.47235527276571254
aF0.48246768840333837
aF0.4901393866379445
aF0.4958549982145515
aF0.4994796597404576
aF0.5017884107837515
aF0.5028613096130669
aF0.5040058606662748
aF0.5051228862495442
aF0.505937385431157
aa(lp200
F0.13298476994072725
aF0.13481903115359709
aF0.1384378468060655
aF0.1448558561121701
aF0.15298452274831456
aF0.16567311189515913
aF0.1809451666449686
aF0.19983075896715782
aF0.22325185120499214
aF0.2498712830403553
aF0.276799980233548
aF0.3028134997916036
aF0.32854370731606486
aF0.3833326535265514
aF0.33572928192991686
aF0.33010396911829737
aF0.334378853383373
aF0.3451622473161535
aF0.3550205435304789
aF0.36589645950572774
aF0.38056764434865736
aF0.3991529853675182
aF0.4203715647392999
aF0.44302093284313354
aF0.4644900861434758
aF0.4831400405920889
aF0.4977368284586565
aF0.5089567391767772
aF0.5174615686670568
aF0.5240125697349246
aF0.5288275721484906
aF0.5328231370216853
aF0.5388967657879209
aF0.5426978656635576
aF0.5453776335509993
aF0.5443213350134378
aa(lp201
F0.15206356621464576
aF0.1536929938141582
aF0.1584907188304341
aF0.15748347629434112
aF0.16988974990168385
aF0.1785117279568196
aF0.19328841614188821
aF0.21369301527117582
aF0.24146762629678165
aF0.2723851375295783
aF0.3040324372959875
aF0.3338832999204577
aF0.3682207730883395
aF0.378762671319201
aF0.37815405931776686
aF0.37394011705214364
aF0.37347077010228036
aF0.38479557427421424
aF0.37811342289890154
aF0.384831409149959
aF0.39738524506293893
aF0.415676993297305
aF0.4382749609833969
aF0.4634459487344267
aF0.48738173488857167
aF0.5078133235917474
aF0.5232577962155865
aF0.5349374673361628
aF0.5439600409209637
aF0.5511091586296702
aF0.5565266611189291
aF0.5623059290494671
aF0.5698325214344188
aF0.5989805438510638
aF0.5838687235115895
aF0.5859975079671494
aa(lp202
F0.16663004884444463
aF0.17264559267148682
aF0.17196081930004195
aF0.1948123415059837
aF0.18197994249887608
aF0.18426586176079593
aF0.20217641439576559
aF0.2252460476672066
aF0.25593561841174
aF0.2940004812079607
aF0.33080872830182173
aF0.36113205355682987
aF0.38904264255537346
aF0.42932261875531347
aF0.41646443276635664
aF0.40812891373995147
aF0.40740096160290856
aF0.39498544702165006
aF0.39402053724702735
aF0.3975170875109835
aF0.4086458333615606
aF0.42743714104381425
aF0.45218925148477096
aF0.4808749775865288
aF0.5089065781560856
aF0.5318938739870304
aF0.5483006791416553
aF0.5593527860134994
aF0.5680048897627327
aF0.5749197173135984
aF0.5809463162321049
aF0.5847901082401948
aF0.5986541803801116
aF0.598287473666764
aF0.6088233703764468
aF0.650343551086875
aa(lp203
F0.17588606437185472
aF0.17868970154184258
aF0.15575467675755328
aF0.20382835075639322
aF0.1774934886577617
aF0.190475517715873
aF0.2050296958855102
aF0.2319410331332951
aF0.2659951155513081
aF0.30842941910798594
aF0.3729146758979697
aF0.3931646130370284
aF0.3907476294697138
aF0.4175983503283168
aF0.4098001855901501
aF0.40180163595328544
aF0.40974841014279345
aF0.4076379312324743
aF0.4019945096341235
aF0.4011396870578173
aF0.4130742669409965
aF0.4327891550236782
aF0.4608988757728501
aF0.495199972121505
aF0.5306888628691565
aF0.5613776692119047
aF0.5722501471204603
aF0.5818689821877824
aF0.588531469056655
aF0.5962865858365878
aF0.6009224238021328
aF0.6095449893028624
aF0.6102303744059495
aF0.6520378698349982
aF0.6136736222380709
aF0.6385063423504906
aa(lp204
F0.17962670686361015
aF0.18162588925969764
aF0.15550838992003602
aF0.19019319887333452
aF0.18461837648999055
aF0.18906131083652508
aF0.20736848123250576
aF0.2305945495812618
aF0.2715306355122539
aF0.3178229408009087
aF0.3593218728959012
aF0.38272335783910644
aF0.3949574422214996
aF0.4099658380587483
aF0.3776709974152254
aF0.4302288003643891
aF0.4294614021376077
aF0.41509745238055107
aF0.4028347685072689
aF0.4036249271146439
aF0.4086736605339623
aF0.4260158476861393
aF0.46679483181730336
aF0.5062187918310695
aF0.5500033573015085
aF0.5805894097956492
aF0.5977789484455217
aF0.6038105656441918
aF0.6053319371132635
aF0.6102922440194231
aF0.6150910486837384
aF0.632035304031223
aF0.6270062318231303
aF0.62241532010647
aF0.6215321434447119
aF0.6324887950004375
aa(lp205
F0.18260916425085036
aF0.17921198653523274
aF0.17869962706742815
aF0.1969258510409243
aF0.19987134371634863
aF0.1631399369891633
aF0.16644140173383337
aF0.230510372547721
aF0.27478164396765686
aF0.3207682864580173
aF0.3709176579134578
aF0.4066656110652192
aF0.4249450158490005
aF0.3966857051096427
aF0.40102342401079716
aF0.44316638316345675
aF0.3973217736938143
aF0.3778253500880166
aF0.4097776929513784
aF0.40855915305118223
aF0.3859242336924578
aF0.4355834379098808
aF0.4722369827877389
aF0.5154351272161574
aF0.5626254141362197
aF0.6449381191991336
aF0.6159595504420369
aF0.6133128000614514
aF0.6216114674570653
aF0.6247563930365133
aF0.6291448522551087
aF0.6435752657061637
aF0.6296332207834728
aF0.6012774923483529
aF0.6233641085696577
aF0.6080489798378308
aa(lp206
F0.17766702840631998
aF0.16044996871061923
aF0.1625066491068594
aF0.18859737259321963
aF0.20405416240304108
aF0.1884112480001492
aF0.19270833630856782
aF0.2329178746243092
aF0.280063594140767
aF0.32595436400011146
aF0.3672072201669237
aF0.380648030210848
aF0.37909448389307293
aF0.3885377199754624
aF0.3784961482562155
aF1.0
aF0.4264497160645313
aF0.3984915437143872
aF0.43039020141182255
aF0.4113996281721824
aF0.41832964884096
aF0.4395611956276952
aF0.47689201122879094
aF0.5218711335433586
aF0.5695938799294051
aF0.6029516776632701
aF0.6251536022203849
aF0.6511705253238061
aF0.6329956332380209
aF0.6334052157069717
aF0.6544564465939124
aF0.6457180274949019
aF0.6312114073682152
aF0.6335770316638811
aF0.5951867077832036
aF0.6450323567444146
aa(lp207
F0.18792868190128498
aF0.17279062771666437
aF0.1884503301144862
aF0.18745534961875807
aF0.19625806924920086
aF0.18861256573452123
aF0.19784362804315747
aF0.24507451998924687
aF0.2912165454190416
aF0.3342163668643119
aF0.3707881339476386
aF0.42380856033850206
aF0.3929999604939723
aF0.39075525913705506
aF1.0
aF0.38946139922426104
aF0.40121493398096997
aF0.3781713356029034
aF0.41883315446203406
aF0.4384044935040404
aF0.40255319905863757
aF0.4308952465706045
aF0.4816881209236397
aF0.524874167484621
aF0.5692109636847932
aF0.6035980146709566
aF0.6213920405676904
aF0.6520299547677659
aF0.6379605691600688
aF0.633085528011997
aF0.6365982235245599
aF0.636304805287117
aF0.6308587289892205
aF0.6375662347039843
aF0.634598151583199
aF0.6207057271655244
aa(lp208
F0.19170315415038183
aF0.2047819388052985
aF0.17370658583538207
aF0.19452473811940696
aF0.19146265165922993
aF0.17496414356146534
aF0.22153079144844248
aF0.2571748407177492
aF0.3032350823638203
aF0.3671332988107293
aF0.37157707783590926
aF0.39217827223456014
aF0.4253142186394226
aF0.39576980696073033
aF0.36930197423754807
aF0.3999730822283159
aF0.41021169269728147
aF0.4052937471172154
aF0.4166365553689648
aF0.409993386078294
aF0.444269344405382
aF0.4624254609297243
aF0.4597605676453328
aF0.5346741247913656
aF0.5744818923683682
aF0.6052071048495445
aF0.6230837525566514
aF0.6334321006113123
aF0.6377697454257333
aF0.6341408498601492
aF0.6345405147555222
aF0.6313719521668236
aF0.6007104165444448
aF0.6501853846101473
aF0.6223762723388054
aF0.6242808173004416
aa(lp209
F0.1973400341394159
aF0.1954009169854224
aF0.19947254100863795
aF0.20510161202205401
aF0.21182649933063322
aF0.22570254369519016
aF0.21819730975505214
aF0.27592029249665506
aF0.3173104685932316
aF0.3517177383798384
aF0.37904326432274954
aF0.3959526846097146
aF0.4101737677560309
aF0.4311489303404105
aF0.38297070399319477
aF0.4113378042362861
aF0.416817509328469
aF0.42348507828511156
aF0.41025832217432695
aF0.44843536106994847
aF0.4716887050726634
aF0.48974008223994137
aF0.5175936829274631
aF0.5500666396557965
aF0.5846767760512424
aF0.6089006392381585
aF0.6249165099987839
aF0.6336090352767436
aF0.6399423722806094
aF0.6418983334115301
aF0.6397729990487969
aF0.6351809840420372
aF0.6376428805450658
aF0.6338065633299355
aF0.6030597811517737
aF0.61275839354247
aa(lp210
F0.2105437196348938
aF0.18443369661183312
aF0.21176628667917496
aF0.22373352310669373
aF0.23428739684839014
aF0.24366021407105753
aF0.27029257886510055
aF0.2985224882362421
aF0.33291614666891856
aF0.36332988309676084
aF0.3862376234220884
aF0.40632357015316517
aF0.41321519305870297
aF0.42507666533506305
aF0.3917548479762443
aF0.4139865289469271
aF0.42993605458241696
aF0.44075163435870196
aF0.4574094241690941
aF0.4745692204392067
aF0.4963771754336161
aF0.518835234102199
aF0.5438984418510113
aF0.5713391712030168
aF0.6006219651139401
aF0.620489648925543
aF0.632355120330783
aF0.642283702159342
aF0.6486793018355616
aF0.652005310951802
aF0.6526896690333728
aF0.6524889668374172
aF0.6500706570989757
aF0.6492637045325221
aF0.6440690397389707
aF0.6425479476697986
aa(lp211
F0.23859188560865843
aF0.24150297649558175
aF0.24624446337228068
aF0.25607433416150666
aF0.26628133183089386
aF0.2808913169850031
aF0.3013699788966236
aF0.32728566898904843
aF0.3554518943273994
aF0.382194957389278
aF0.40760231143085973
aF0.4233817678448513
aF0.4358442322122567
aF0.44114307509939943
aF0.41845759386147746
aF0.41228737130332177
aF0.4305083270081843
aF0.46949122586050995
aF0.4874913240313196
aF0.5039782799416855
aF0.5206507538675536
aF0.5420827078051831
aF0.5648091033048991
aF0.5886325003670243
aF0.6109038083526398
aF0.6295359945421168
aF0.6437630316732769
aF0.6543900962040974
aF0.6621228177383287
aF0.6671356347742625
aF0.6699292278032116
aF0.6713137328979325
aF0.6721613603437074
aF0.6721038879944367
aF0.6717294606048942
aF0.6711572341762425
aa(lp212
F0.2805892079741168
aF0.2820801948083815
aF0.2857146470409793
aF0.2911100666864232
aF0.2999268893656029
aF0.3133711460381127
aF0.3323923703547609
aF0.35548849259788534
aF0.38119716893144706
aF0.40776504318580514
aF0.433782981932971
aF0.4582177842277199
aF0.4689171703875477
aF0.4791534906235488
aF0.47660926216728833
aF0.4774273160937745
aF0.4876527639758663
aF0.5025646586442659
aF0.5180032036837557
aF0.531393644143736
aF0.5461931809989915
aF0.5637239989666617
aF0.5838607248217564
aF0.6050513046052686
aF0.6252082870894345
aF0.6430219412357081
aF0.657808953193315
aF0.6698616169100001
aF0.679368013292566
aF0.6865289570244925
aF0.6915835382182203
aF0.6951480186108349
aF0.6978654194584203
aF0.699804732381511
aF0.7009585326642029
aF0.7013165537040799
aa(lp213
F0.3213892513125101
aF0.32221925060394585
aF0.3243628087935531
aF0.32719592776193496
aF0.3335706841516173
aF0.3447758902995964
aF0.36152714754207377
aF0.3826282710005333
aF0.40716571606695195
aF0.43398221864372366
aF0.46301202399496666
aF0.4948192975354728
aF0.538757814661311
aF0.5282276194372661
aF0.5292853428193521
aF0.5313273755273155
aF0.5352581739605619
aF0.5404741695288359
aF0.5480578685519188
aF0.5575849933692577
aF0.5695480323272076
aF0.5847158523153982
aF0.6026470560073817
aF0.6221124455024002
aF0.6412494831415564
aF0.6590046261584211
aF0.6746205750194161
aF0.6881662110906248
aF0.6996463242379586
aF0.7092181101864123
aF0.7169595375523218
aF0.723431350791484
aF0.7286863665564173
aF0.732599265416094
aF0.734604884936704
aF0.735281460560033
aa(lp214
F0.35616529690115367
aF0.3645513889348769
aF0.36149222234541095
aF0.36148935529808096
aF0.3635458774768272
aF0.3726058875159713
aF0.3866818512041934
aF0.4070238693822065
aF0.43114224553318786
aF0.45886109297350597
aF0.49055152181410366
aF0.527118778952206
aF0.5787761342218848
aF0.5782002690430987
aF0.5792865334583709
aF0.5876368398580669
aF0.5785813299851795
aF0.57301233782577
aF0.575589569527451
aF0.5812674456388595
aF0.5912260999429454
aF0.6048051570918019
aF0.621265130558176
aF0.6394847905894642
aF0.6582069060392541
aF0.6764355516041348
aF0.6931794151500656
aF0.7082570349129303
aF0.7217956887061616
aF0.7337793355271467
aF0.7443281221038878
aF0.7538430063357113
aF0.7643689844432613
aF0.7706466537508431
aF0.7737262220033552
aF0.7724765685876069
aa(lp215
F0.38317469789189235
aF0.38352994314619143
aF0.38931413043647844
aF0.38586581530220343
aF0.386718466057514
aF0.3958160707014187
aF0.4079108621111595
aF0.4274928458072937
aF0.4515646897255119
aF0.48068059450689443
aF0.5140932635809521
aF0.5532253489500615
aF0.5845297165886195
aF0.6171607307432885
aF0.6451802121722642
aF0.6170625634699224
aF0.6048000661579707
aF0.5991869548645904
aF0.5973372314769361
aF0.6010624706444597
aF0.6097322176994712
aF0.622804690596228
aF0.6384371475983496
aF0.6561551415183141
aF0.6751046408336635
aF0.6943918205631605
aF0.7125684062637713
aF0.7291365848816408
aF0.7444359250886389
aF0.760327314960355
aF0.772077400171399
aF0.784945266256354
aF0.7987675913151686
aF0.8274880886916054
aF0.812469326577852
aF0.8117982250590505
aa(lp216
F0.40532238494478356
aF0.40103801223085406
aF0.40191494818247997
aF0.4005958273752155
aF0.4031514482168322
aF0.4092408449740825
aF0.4224851096759752
aF0.4418223853574321
aF0.4676333242659068
aF0.4985807191379978
aF0.5330752672054566
aF0.5701816950864637
aF0.6268415865493192
aF0.6240678873042746
aF0.6186188480528655
aF0.6488558068068289
aF0.6206886472433082
aF0.6101616038320575
aF0.6120624619266158
aF0.6160774243452414
aF0.6253268370600865
aF0.6381612534514982
aF0.6540557271904156
aF0.6710732758845771
aF0.6908178726724366
aF0.7112500285817368
aF0.7311075111142321
aF0.7505928837193153
aF0.7664582281919583
aF0.7829390922733439
aF0.7993354733668819
aF0.8151550704446128
aF0.8321182287895494
aF0.8436108337650552
aF0.8452966111471251
aF0.8562568836711312
aa(lp217
F0.4204216825236511
aF0.4351264462611209
aF0.41100511887707963
aF0.4092274788857266
aF0.4102750603335094
aF0.4177800160130242
aF0.43094903599876994
aF0.45156701856274367
aF0.47934853663342514
aF0.5124031227652607
aF0.5472626232106655
aF0.5828818161162242
aF0.6150461817035527
aF0.650300774308658
aF0.6344363737004941
aF0.628531815780346
aF0.601711485182563
aF0.6235935604710462
aF0.6197139958517165
aF0.6277642598889028
aF0.6370385987265673
aF0.6499778729238991
aF0.6657474270257465
aF0.6841948285225031
aF0.7049263680321342
aF0.7264403784844126
aF0.7475991305692781
aF0.7703023195433011
aF0.7867778818638699
aF0.8057560384144238
aF0.8251145925968001
aF0.8438448619078165
aF0.8616649326222386
aF0.8782614290983646
aF0.8910796892606138
aF0.9196491104305462
aa(lp218
F0.4256692036083569
aF0.4359667801401771
aF0.41801876657733406
aF0.41522370003605696
aF0.41396682624839576
aF0.42093230847815116
aF0.43482496512852226
aF0.4574310415847129
aF0.48733896250417647
aF0.5224468767760787
aF0.5577309980703178
aF0.5888995305366653
aF0.6133166655472492
aF0.623119373319903
aF0.6286771563267729
aF0.650976201297911
aF0.624274544637271
aF0.6009232726229616
aF0.6298495788110684
aF0.635751685322659
aF0.6460530401936474
aF0.6601527298318496
aF0.6759095313134136
aF0.6954202734848317
aF0.7171688760648117
aF0.7394780247207149
aF0.7617196890296182
aF0.7833506285313635
aF0.8052192404952635
aF0.8271047824127443
aF0.8490318222782868
aF0.8724137588141271
aF0.8903667080008324
aF0.9094897674178032
aF0.9453327474376498
aF0.9244321688057356
aa(lp219
F0.4200074982020232
aF0.41997746790767354
aF0.41179507321653025
aF0.4147171500089218
aF0.4131034205502922
aF0.41519157634441356
aF0.43642537023811484
aF0.4603612772601973
aF0.49205708265186904
aF0.5290752371291051
aF0.5653635979948047
aF0.5958880952672739
aF0.6174808884445072
aF0.6244353342594094
aF0.5989870347141797
aF0.630207013180134
aF0.6336356968026996
aF0.6243048648357757
aF0.630667482076694
aF0.640813868005162
aF0.6515403817095383
aF0.6661025029804263
aF0.6841192283492351
aF0.70513494900674
aF0.7279344120568353
aF0.7511047783950059
aF0.7740406209420864
aF0.7972950234904105
aF0.8212525281795422
aF0.8458484229405804
aF0.8705367716439191
aF0.8941020261847141
aF0.9156335679355657
aF0.9355207178917505
aF0.9488168052610995
aF0.9793963356150559
aa(lp220
F0.4123820946184586
aF0.40951912874350743
aF0.4295870123131395
aF0.41047545410775443
aF0.40561912583299753
aF0.41946479156628785
aF0.43359565254787347
aF0.4583567668958184
aF0.4953074624562086
aF0.5336500563311914
aF0.5750919659904258
aF0.6074449833211618
aF0.6290197068476652
aF0.6507134152561445
aF0.634235198063413
aF0.6354838676001568
aF0.6039468485679739
aF0.6346871539324236
aF0.6354087356226941
aF0.6424365736372096
aF0.6542675974778517
aF0.6705922367627166
aF0.690216113465167
aF0.713048682053219
aF0.7369512185244617
aF0.760953039959673
aF0.7849554456934023
aF0.8090956698915321
aF0.8342355004549038
aF0.8606289881924285
aF0.8877382461151213
aF0.9139308117863082
aF0.9403700200971591
aF0.957826550020517
aF0.9702301082352731
aF0.964699354883887
aa(lp221
F0.40060443837412035
aF0.4139251460969853
aF0.40088855002108964
aF0.4111516974229524
aF0.4146703334135455
aF0.4217277136019206
aF0.4374432752590805
aF0.46431760061278715
aF0.49805890939429237
aF0.5375569230920471
aF0.577715157125947
aF0.6078110485220836
aF0.6640142463483836
aF0.6031013034789245
aF0.6037296289369356
aF0.6263452350365456
aF0.6217012355330495
aF0.6310227850941469
aF0.6347645453395351
aF0.6440629524006339
aF0.6553741493836752
aF0.6735734974742275
aF0.6947585233237442
aF0.7190979146362393
aF0.7440313792731993
aF0.768836619946148
aF0.7932835083900501
aF0.8210655797739799
aF0.8409954689903661
aF0.8686406093869312
aF0.9004306385747678
aF0.9299610889932127
aF0.9568100216375539
aF0.990862723621461
aF1.0
aF0.9834225633728574
aa(lp222
F0.4057285504332369
aF0.4029785108240079
aF0.3978283932037861
aF0.42364795009961476
aF0.4080345827472232
aF0.4193734554867108
aF0.4383758501659191
aF0.4652921129021376
aF0.5011177463329696
aF0.5410660983747663
aF0.5832237158175028
aF0.6340722910668459
aF0.6267833664235637
aF0.604144747016078
aF0.6055375402168319
aF0.6548771559341513
aF0.6510010113640674
aF0.6269371784675783
aF0.631769193634382
aF0.6435901527131643
aF0.6573819102431826
aF0.6756591425637999
aF0.6980560629090728
aF0.723063366781413
aF0.748390852180996
aF0.774156178858104
aF0.7992292737002876
aF0.8218776331316754
aF0.8248882902101236
aF0.8763189315276038
aF0.9100165961326679
aF0.9415589686809223
aF0.9796354162046652
aF0.9951117630327682
aF0.9918356048842871
aF0.9900909928840592
aa(lp223
F0.40466707601218127
aF0.40535753645138506
aF0.39371835159177393
aF0.40619517984234516
aF0.41248827109928615
aF0.41547083092389836
aF0.42538543668671003
aF0.4665223482321512
aF0.50325096752158
aF0.5419551162646683
aF0.5839214000355807
aF0.6357593008326279
aF0.6418716734034456
aF0.652401431826875
aF0.5901798534263168
aF0.6207528263641033
aF0.6001271748103223
aF0.6143099754804733
aF0.6307979484829862
aF0.6431431484283628
aF0.6556556234037255
aF0.6771649983103062
aF0.7004170063693268
aF0.7257449932473312
aF0.7507495928917022
aF0.7760596336646284
aF0.8056785819809509
aF0.8264396290167436
aF0.8534056486661107
aF0.8821156116421752
aF0.9156281218975305
aF0.9469722335700728
aF0.9886104656339826
aF1.0
aF1.0
aF0.993905671064906
aa(lp224
F0.39988423240260884
aF0.41786693680345494
aF0.3993073806630385
aF0.4038279005064671
aF0.4104367402981481
aF0.419571623212891
aF0.43751892242269114
aF0.4665513121853372
aF0.5042325405798627
aF0.542081852431275
aF0.5718987070445278
aF0.6140987590492166
aF0.6343470611924545
aF0.6078203045903398
aF0.6324816658286248
aF0.6331929997724755
aF0.5984347437389156
aF0.6147769909495112
aF0.630067869582303
aF0.6429560303944317
aF0.6582541975678298
aF0.6777973774104782
aF0.7008875118894012
aF0.7266864537037605
aF0.7566483019329497
aF0.8047510811220817
aF0.8043339975745724
aF0.831641093479633
aF0.8609028949603177
aF0.8897469954330388
aF0.9174097266336865
aF0.9485597045030576
aF0.97623666475847
aF0.9990996100636919
aF0.9939652498517852
aF0.9953768571552722
aaaa(lp225
(lp226
(lp227
F0.86931893697194
aF0.8753659863203288
aF0.890650747871488
aF0.9159616059405455
aF0.9534749109348434
aF1.0
aF1.0
aF1.0
aF1.0
aF0.8600883622604534
aF0.626323259931123
aF0.4317649959020201
aF0.2238465513264846
aF0.0
aF0.0
aF0.0
aF0.0
aF0.30233850802235
aF0.5151361396523307
aF0.6785741035985755
aF0.841135407375293
aF1.0
aF1.0
aF1.0
aF0.9204821203411049
aF0.849925552088475
aF0.7900469197510513
aF0.7363993703433696
aF0.6872146707711712
aF0.6405920400910817
aF0.5931169429122976
aF0.5414803982767895
aF0.48038078522131333
aF0.4013443631436411
aF0.28608618864796054
aF0.0
aa(lp228
F0.8640764921776368
aF0.869665665187183
aF0.8838015995046793
aF0.9071617502214931
aF0.9405391453871969
aF1.0
aF1.0
aF1.0
aF0.9040032436243314
aF0.7765519144899683
aF0.617712567414011
aF0.4395849163370049
aF0.25005367859963096
aF0.0
aF0.0
aF0.0
aF0.17407457234258814
aF0.3291081363845238
aF0.5081078150235115
aF0.6703204832882319
aF0.8170316921340036
aF1.0
aF1.0
aF1.0
aF0.899149974531487
aF0.8381974646614098
aF0.7830135940931644
aF0.7326891725812658
aF0.6859373834429671
aF0.6412983848561565
aF0.59595400214986
aF0.5471724450076246
aF0.4908152280482591
aF0.4220101829244858
aF0.33144258894218126
aF0.28320478074314265
aa(lp229
F0.8515185742093734
aF0.8561219964170891
aF0.8678012078619646
aF0.886789492501081
aF0.9138990523181884
aF0.942503305683517
aF0.9579778256050092
aF1.0
aF0.8503960387732848
aF0.7340454017342508
aF0.6031894168747174
aF0.45858114504914455
aF0.3020597378820956
aF0.1471568981543661
aF0.11936903764496147
aF0.15011114832205827
aF0.2520204304013143
aF0.3817627226489368
aF0.5188550151378041
aF0.6533181836451609
aF0.7778427298784315
aF0.8658141043114247
aF0.9130264985312192
aF0.8936908415561806
aF0.8609803070858911
aF0.8129894281465257
aF0.7677027185592143
aF0.7243934125862218
aF0.6830548724463528
aF0.6429762303814175
aF0.6024787620254909
aF0.5599353795016322
aF0.5133500352835302
aF0.4622271202215667
aF0.4166194711800024
aF0.39323945508801583
aa(lp230
F0.8328647436081674
aF0.8362648527778652
aF0.8448391679409625
aF0.8585189377158301
aF0.876150371297049
aF0.896186636827061
aF0.9520709744419996
aF0.8707410075870259
aF0.8005818330627462
aF0.7029764170259186
aF0.5977436019662099
aF0.4843638747418015
aF0.3696113135046722
aF0.2722035812362345
aF0.14647186586815703
aF0.2515701873593265
aF0.32865999942949475
aF0.4272727801102565
aF0.5330230531761275
aF0.6364951152731694
aF0.7294733891167374
aF0.8194644322262482
aF0.8864948709342968
aF0.8398014712617264
aF0.8135311621008167
aF0.7822779567776575
aF0.7479688712894137
aF0.7133533128741387
aF0.6791865006645236
aF0.6454441063848577
aF0.6115602784663324
aF0.5769988551825573
aF0.5415029228343533
aF0.5072652130935159
aF0.47978521730405504
aF0.4670093912064243
aa(lp231
F0.8097171582524328
aF0.8119070824168455
aF0.8173520544278808
aF0.8256534966286883
aF0.835757864295935
aF0.847134089153431
aF0.8395379653089231
aF0.8091312604353028
aF0.7497315200058935
aF0.6784110885382444
aF0.5974454095059134
aF0.512492255897072
aF0.4300242686174638
aF0.3561328376584725
aF0.32302962980201994
aF0.31838539918563363
aF0.3944714708313523
aF0.4679773102651404
aF0.5462017199388546
aF0.6226520549857297
aF0.6937299507990708
aF0.7552845419076006
aF0.7874860975995649
aF0.7922204691474243
aF0.7732889176642086
aF0.7516833980619344
aF0.7273018813977462
aF0.7013424144862497
aF0.6749999907699249
aF0.6485087774020152
aF0.6220214751696945
aF0.5957062748213419
aF0.5701951901280645
aF0.5473364363532723
aF0.530279151108538
aF0.5226758132006405
aa(lp232
F0.7837626473470866
aF0.784849617051976
aF0.7874308027469801
aF0.7910232022576501
aF0.7946746780675257
aF0.7938986843285275
aF0.7831109559930215
aF0.7561804930226722
aF0.7139200784889663
aF0.6598536083513878
aF0.6001835324124731
aF0.5387025240186193
aF0.4802330171976686
aF0.4340473385476147
aF0.4093833477456425
aF0.41725634873884276
aF0.45151908453754
aF0.5035983270809431
aF0.5590063270653882
aF0.6136815660203926
aF0.664479393011046
aF0.7080783569246805
aF0.7562484641045001
aF0.7437217853680075
aF0.7365852503222062
aF0.7232406946933808
aF0.7072654026933017
aF0.6895218064098169
aF0.6710280561827604
aF0.6520577787394939
aF0.6330515025532427
aF0.6144600891110982
aF0.5970531930271226
aF0.5821621984663985
aF0.5715524977328674
aF0.5669610739272644
aa(lp233
F0.7565861781911067
aF0.7566759355160158
aF0.7567823508811099
aF0.7564760742348069
aF0.7551345286964272
aF0.7504214307933138
aF0.7393166647411288
aF0.7179267509852814
aF0.686377092202162
aF0.6469670280694767
aF0.604565073738376
aF0.5621107442957579
aF0.5227954296912154
aF0.4897652148412142
aF0.4740429605605951
aF0.4781245265376108
aF0.5016644998429248
aF0.5342362715951455
aF0.5710388789060831
aF0.6081230434905494
aF0.6428480540756928
aF0.6742913533755027
aF0.6948953624233644
aF0.7044156091345348
aF0.7025941667815724
aF0.6968169838520734
aF0.6884517964162064
aF0.6784838075773695
aF0.6676506744331346
aF0.6561293623550019
aF0.6443538507459726
aF0.6327745933014254
aF0.6220345206245
aF0.613020877928841
aF0.6067458207734822
aF0.6040719456407703
aa(lp234
F0.7296133169238045
aF0.7287744169223566
aF0.7267068409696916
aF0.7232252062467475
aF0.7185666765680895
aF0.7116419930380214
aF0.7014288578266888
aF0.6850503944729519
aF0.663007521777521
aF0.6365474267048428
aF0.6095435160237609
aF0.5835694247792186
aF0.5597086725591421
aF0.5387112023996549
aF0.5073370006234981
aF0.5298283471031225
aF0.5431959827717435
aF0.5613298935284402
aF0.5822011796943589
aF0.6043065808179372
aF0.6254955050722365
aF0.6439477282996916
aF0.6580364065605568
aF0.6667648186499125
aF0.6709787594099783
aF0.6718069783051837
aF0.6708389163143482
aF0.6685076257267397
aF0.6651772736331308
aF0.6609437651943918
aF0.6560800394488305
aF0.6509077087254401
aF0.6458655157157263
aF0.6415102798897605
aF0.638433334597106
aF0.6371140213224834
aa(lp235
F0.7041700848667553
aF0.7023783335023887
aF0.6981972684513083
aF0.6918096913588369
aF0.6840679712757535
aF0.6748553753499595
aF0.6648542663866007
aF0.6528972035277517
aF0.6399391833637328
aF0.626295972876274
aF0.6140854453856551
aF0.6037170881132542
aF0.5947843999360239
aF0.5854538433487851
aF0.5800932356497918
aF0.5783823622336336
aF0.581488119606107
aF0.585582820295599
aF0.5916241311339657
aF0.5997892987424698
aF0.6085849736712875
aF0.6174727491485346
aF0.6258261528576591
aF0.6338597431243459
aF0.6414000575075447
aF0.6483494748688243
aF0.6545296356116389
aF0.6597765406080868
aF0.6639477164873466
aF0.6669096766350866
aF0.6687075531455235
aF0.6695371241324165
aF0.6696599817927694
aF0.6694300526696665
aF0.6691068133651433
aF0.6689480676571072
aa(lp236
F0.6816401142019206
aF0.6787199476836223
aF0.6720758836063951
aF0.662280426357788
aF0.6505026933427557
aF0.6377482936323138
aF0.6266439148865496
aF0.6186978407148663
aF0.6149901083784682
aF0.6146588492900636
aF0.6174102271216175
aF0.6230128851087676
aF0.6297261763455574
aF0.6352085451991746
aF0.6351024430418537
aF0.6293778013671116
aF0.6187465160075011
aF0.6079358501193578
aF0.5987915493933843
aF0.5930086685850374
aF0.5899621862528044
aF0.5900790220504115
aF0.5937619266155382
aF0.6014720216087461
aF0.6125545085052774
aF0.6256512363735679
aF0.6393293376787142
aF0.6524876467881441
aF0.6644144706192846
aF0.6746312319579576
aF0.6829490658846877
aF0.6895034417300178
aF0.6944415453906019
aF0.6980274944803487
aF0.7002141723187737
aF0.7011198723124695
aa(lp237
F0.663722659287921
aF0.6592593505948088
aF0.6490864809703051
aF0.6343501171879783
aF0.6166266194460435
aF0.5969597631061077
aF0.5837194545698329
aF0.5796388462122547
aF0.5871278221901982
aF0.6004430604874545
aF0.6184811974456297
aF0.6408476534744718
aF0.6644918340386813
aF0.6842428355468081
aF0.6902060425181148
aF0.6800389166742945
aF0.6562119580876827
aF0.6287760682520415
aF0.6031220805952863
aF0.5825752986933698
aF0.5673806058216329
aF0.5589226400974429
aF0.5587198686831675
aF0.5670455285890902
aF0.5826954277366213
aF0.6028915606581052
aF0.6250539830857177
aF0.6469636661380588
aF0.6672320397910417
aF0.684938695119386
aF0.6997148967696275
aF0.7117670139733704
aF0.7212332660050432
aF0.7284069240910842
aF0.7329358354227145
aF0.7348475905122477
aa(lp238
F0.6528143802893793
aF0.6460230356815235
aF0.6304132166034914
aF0.6081474875865868
aF0.5819461022678244
aF0.55354498820966
aF0.5203324251166046
aF0.5369352104039842
aF0.5555639262925198
aF0.582465829766509
aF0.6163067867087859
aF0.6561772576357835
aF0.6985251216232408
aF0.7340560715216259
aF0.7475069770852691
aF0.7319659236644097
aF0.693544915002941
aF0.6475006284177052
aF0.6040893142298046
aF0.567531506665928
aF0.5391695683351703
aF0.5215917832630271
aF0.5176443679842125
aF0.5275953928394171
aF0.5495260378211674
aF0.5789098373943466
aF0.6115680545520887
aF0.6438156153573064
aF0.6733980764788142
aF0.6989593189905721
aF0.720099269395119
aF0.7372575409219234
aF0.7507440625979666
aF0.7609880770019867
aF0.7674909715538676
aF0.7702371782166436
aa(lp239
F0.6524754701233166
aF0.6420179338287673
aF0.6178046603512497
aF0.583831357672517
aF0.5451524086818239
aF0.5072065360081428
aF0.4697933818266408
aF0.4893375274635939
aF0.5171342905123624
aF0.5582913800655013
aF0.6093423996000205
aF0.6679409816235209
aF0.7304321898036662
aF0.7938407060038134
aF0.8162041350479258
aF0.7952708769996869
aF0.7307249512552324
aF0.6643134616343955
aF0.6011640549561296
aF0.5460797443248621
aF0.502275951433134
aF0.4741644433183194
aF0.46637282920517825
aF0.47954095337328195
aF0.5105513152776774
aF0.5526204033862753
aF0.5990436396179049
aF0.6441368796758883
aF0.6844058568830494
aF0.7181715197189927
aF0.7453362225869217
aF0.7669165131145851
aF0.7837355485349661
aF0.7965233144908948
aF0.804753262707479
aF0.8082488352320031
aa(lp240
F0.668325335884362
aF0.652000987915752
aF0.6143789462279163
aF0.562547025491322
aF0.5051994457277632
aF0.45187000928449167
aF0.42458833985541294
aF0.4286872087567213
aF0.46754621853019906
aF0.5250666874448022
aF0.5965021462305947
aF0.6754408996414734
aF0.7585409674018885
aF0.845878039609928
aF0.9833442509722339
aF0.8534213919199591
aF0.7674732963126788
aF0.6795809382594888
aF0.593744564572539
aF0.5162246182208486
aF0.4526910712743437
aF0.41085367669497747
aF0.39863231539684146
aF0.41739452263689286
aF0.4623238855597736
aF0.5226900160609839
aF0.5881964421548446
aF0.649843477710507
aF0.702448979559132
aF0.7444416535541788
aF0.7766768098459109
aF0.8014123875894592
aF0.8204873256117057
aF0.835386810696615
aF0.8454928142534176
aF0.8500066078314986
aa(lp241
F0.7099252634990486
aF0.6830976302505877
aF0.6237655228089575
aF0.5444830573300736
aF0.4590089317091148
aF0.38100576194227775
aF0.3186692009043382
aF0.3490299556265117
aF0.39592536630250325
aF0.4797997459796273
aF0.5772887564739811
aF0.6799380919084662
aF0.7825839483689983
aF0.8874684508181124
aF1.0
aF0.908186991391212
aF0.8086123956179798
aF0.6949324318260368
aF0.5828981823846812
aF0.47641934018515153
aF0.38641347167688367
aF0.32212848734809685
aF0.30339960481099676
aF0.3326772055870925
aF0.39971410930367407
aF0.48813727725118566
aF0.5815493633652514
aF0.6648196814230426
aF0.7315166085310882
aF0.7806618882755477
aF0.8158330901034191
aF0.8413727273775248
aF0.8608149635438513
aF0.8768394061961432
aF0.8910745074775233
aF0.8980066808940737
aa(lp242
F0.7938356676624784
aF0.7499657954044916
aF0.6466436843726591
aF0.5306012500445725
aF0.40803375508417566
aF0.2873831786368905
aF0.1941971210512029
aF0.19550247235992757
aF0.30020837539407513
aF0.42474679244177166
aF0.553394622559631
aF0.6830570500140034
aF0.8095799650878458
aF0.9171841226655233
aF1.0
aF1.0
aF0.8447899366881741
aF0.7110913916250974
aF0.5689726932477308
aF0.42722506152690237
aF0.2958282046560594
aF0.20448515780608398
aF0.14256570658311685
aF0.21563044632324502
aF0.3179049660072679
aF0.45562504703989354
aF0.5854064165957696
aF0.6969352999669467
aF0.7769975396454392
aF0.8308560145993485
aF0.864391462048534
aF0.8874197465644292
aF0.9040265775763272
aF0.9183877093819595
aF0.9353102345931915
aF0.9659261662143854
aa(lp243
F1.0
aF0.8234489907491501
aF0.6874795667893768
aF0.5213808187437797
aF0.3476512275609394
aF0.1946944452323683
aF0.0
aF0.0
aF0.2004926846177136
aF0.35831830580533913
aF0.5347303363335377
aF0.6881323314048303
aF0.8331635472397242
aF1.0
aF1.0
aF1.0
aF0.8827139134606398
aF0.7357728672426234
aF0.5537554728538266
aF0.36279621763850406
aF0.19897352372370467
aF0.0
aF0.0
aF0.0
aF0.24867732074219415
aF0.4278769092792823
aF0.6165722069805178
aF0.7551520799223095
aF0.8550679313339898
aF0.8922277613880589
aF0.9268882849567232
aF0.9409675852936384
aF0.9464291918453807
aF0.9594702175161026
aF0.9702629785771185
aF1.0
aa(lp244
F1.0
aF1.0
aF0.7042681494626128
aF0.5183806316073616
aF0.328648555317151
aF0.0
aF0.0
aF0.0
aF0.0
aF0.3314743781710526
aF0.5245378448479919
aF0.7140334958639423
aF0.8441190224558838
aF1.0
aF1.0
aF1.0
aF1.0
aF0.7439168150977346
aF0.5466738088152202
aF0.3074186253633198
aF0.0
aF0.0
aF0.0
aF0.0
aF0.21383539559699305
aF0.39378294020086385
aF0.6238379436253305
aF1.0
aF0.8775254138316337
aF1.0
aF1.0
aF1.0
aF1.0
aF1.0
aF1.0
aF1.0
aa(lp245
F1.0
aF0.8542699276810637
aF0.6914960888470082
aF0.5210382689789642
aF0.3452107163351319
aF0.18861171220591766
aF0.0
aF0.0
aF0.20161125291914264
aF0.3560371457643954
aF0.5308097291326866
aF0.6824355118218121
aF0.8256618406080422
aF1.0
aF1.0
aF1.0
aF0.9127664805960308
aF0.7334235768217745
aF0.5490319048504197
aF0.3537268946898318
aF0.13814730149516236
aF0.0
aF0.0
aF0.0
aF0.2475313184672361
aF0.42768475505985615
aF0.6174757703136587
aF0.7565957275867737
aF0.8560975155944665
aF0.8901645386776615
aF0.9284087105277994
aF0.9459122767708695
aF0.9738443653276333
aF0.9627780596668152
aF0.9694343038276099
aF1.0
aa(lp246
F0.7980402496833081
aF0.7500550213818503
aF0.6485096841208019
aF0.5277659452933209
aF0.4028598792036189
aF0.280524953853146
aF0.1597920566531601
aF0.21374043698619996
aF0.29793840800823207
aF0.4199067689567193
aF0.5455537569142607
aF0.6713620424079371
aF0.7940625205229032
aF0.8901828351060025
aF1.0
aF0.9052751412997644
aF0.8205861176242567
aF0.7018359674248288
aF0.5608037092227794
aF0.41333344163679936
aF0.28113836261172703
aF0.18874021699034063
aF0.11467058331307702
aF0.2086500915509536
aF0.3149057410873007
aF0.45473003905070275
aF0.5859682832923636
aF0.6981195433680164
aF0.7777261547534763
aF0.8313705477966247
aF0.8652081154798674
aF0.8912409623898118
aF0.907248942018399
aF0.9195577522062169
aF0.9300723421724336
aF0.9361696320272364
aa(lp247
F0.7036578235857199
aF0.6765258338883285
aF0.616434820856166
aF0.5364089926891048
aF0.4508776771280601
aF0.3720243273992165
aF0.33007839178676585
aF0.3353307550114531
aF0.39115066959465383
aF0.47205328744030756
aF0.5660253068237315
aF0.6627081541676052
aF0.7561814052395938
aF0.8578416524987715
aF0.8842002840809161
aF0.8491867007528907
aF0.7691762337203177
aF0.6765813673276407
aF0.5728125865921919
aF0.4683763518018269
aF0.3780215900223621
aF0.311819726815681
aF0.293513095276106
aF0.32214923441871207
aF0.39559699478283467
aF0.4859034784867286
aF0.5802784718965437
aF0.6636562336040271
aF0.730113355888162
aF0.7787533846919706
aF0.8136269901296651
aF0.8384807102615749
aF0.8570463663280358
aF0.8714505388133574
aF0.8824256647040297
aF0.8875024022014975
aa(lp248
F0.6514698541490065
aF0.6349889608174983
aF0.597547227743924
aF0.5464998107761229
aF0.4918917090193194
aF0.4452677652041482
aF0.4170985683238078
aF0.42153149487667113
aF0.45627368763183984
aF0.5152529685120757
aF0.5829277904354052
aF0.6541849593871428
aF0.7256526661397448
aF0.7879372458686528
aF0.8798920858135206
aF0.7916815965205806
aF0.7321500184947531
aF0.6604180165151942
aF0.5840089909796289
aF0.5101270939301575
aF0.44810894485577313
aF0.4066267898309945
aF0.394018432890941
aF0.4128220196488046
aF0.45809398107452665
aF0.5190457685336676
aF0.5844627225003222
aF0.6456665380312523
aF0.697728950011971
aF0.7390903448279155
aF0.7705883133968845
aF0.7942704021921969
aF0.8122731090617717
aF0.8261251965369144
aF0.8358852111127816
aF0.8401891344256303
aa(lp249
F0.6233491728719113
aF0.6131165085461774
aF0.5898188400676477
aF0.558057768339368
aF0.5245539941120477
aF0.495803250685176
aF0.47786453653847843
aF0.458412579486899
aF0.5053102026452143
aF0.5470106729317145
aF0.5948734200298812
aF0.6454752087161512
aF0.6948231193100972
aF0.740491637410244
aF0.7573646110983748
aF0.7446868562637645
aF0.7002932018614371
aF0.6482581447209653
aF0.5932208755159892
aF0.5417338508713146
aF0.5001191269826574
aF0.47297871487203397
aF0.4649600025080986
aF0.4768703920250708
aF0.5063935716100817
aF0.547147339644777
aF0.5926080773752087
aF0.6368933916935707
aF0.6764685469318179
aF0.7095954309827635
aF0.7361983077996261
aF0.7569878789772401
aF0.7730342139977785
aF0.785028583081453
aF0.7930016207152013
aF0.7955214403821219
aa(lp250
F0.6106731048989529
aF0.6044687483561288
aF0.5903537749674627
aF0.5711706063936464
aF0.5510105559771709
aF0.5338392497043887
aF0.5223868128364176
aF0.5253035528095297
aF0.541576087758656
aF0.5702739144895314
aF0.60212420517141
aF0.6356873915222843
aF0.6680251443848291
aF0.693305231611554
aF0.7047904260589194
aF0.6971618990548799
aF0.6725406896673012
aF0.6371696702047857
aF0.5995023090293179
aF0.5650376923879388
aF0.5379832573096243
aF0.5209261048436546
aF0.5161972659427527
aF0.5242422162971129
aF0.54371597401973
aF0.5710879246225776
aF0.6023431113586258
aF0.6337735518125328
aF0.6628035998472157
aF0.6879837842932378
aF0.7088695088928819
aF0.7256294471033359
aF0.7386904262883803
aF0.7483517652341947
aF0.7545427558912886
aF0.7570879693049449
aa(lp251
F0.6076909560810498
aF0.604207293745649
aF0.5962532364885745
aF0.5853151747186347
aF0.5737029950816207
aF0.5637703011467693
aF0.5589681020129632
aF0.5611499114381138
aF0.5712284025721187
aF0.5868871035436986
aF0.6057568999659564
aF0.6254887565080036
aF0.6439078979203372
aF0.6586058057734988
aF0.6653386638612807
aF0.6617434136035615
aF0.6473070179473503
aF0.6260597882110415
aF0.6028243860128866
aF0.5820943212723307
aF0.5663678035284541
aF0.5571474839689555
aF0.5553659183952459
aF0.561248927883974
aF0.5740348823541713
aF0.5919598406833487
aF0.6126739720454069
aF0.6339006277548204
aF0.6538755694518964
aF0.6715450012948095
aF0.6864774916345481
aF0.698671151729358
aF0.7083122561056019
aF0.715525143246762
aF0.7202165121626956
aF0.7221553651135165
aa(lp252
F0.6105451105551747
aF0.6089687951142752
aF0.6053527036231876
aF0.6002327411627055
aF0.5946386799131109
aF0.589771744939022
aF0.5873863948301321
aF0.5882969681494373
aF0.5926370513327793
aF0.5993186134377732
aF0.6071422185150989
aF0.6153192369501845
aF0.6227866595137846
aF0.6291605293693675
aF0.6321952664158256
aF0.6310364771776124
aF0.6244218589448087
aF0.6145829327351668
aF0.6036291751458154
aF0.5945706875049598
aF0.5885296850192
aF0.5862251672491179
aF0.5874801888960707
aF0.5922920817037554
aF0.6003105407022734
aF0.6110374686091976
aF0.6233520878888356
aF0.6360519528125144
aF0.6480362639855687
aF0.658652667598815
aF0.6676230219836484
aF0.6749647141992643
aF0.6808347889776537
aF0.6853291824806641
aF0.6883329630677518
aF0.6896006208794582
aa(lp253
F0.6159613935141953
aF0.6159123324382095
aF0.6157715782864527
aF0.6153871637216236
aF0.614699875811448
aF0.6136720669864092
aF0.6126269189531434
aF0.611575656681724
aF0.6105200260504597
aF0.6091451960717814
aF0.6072479937945356
aF0.605197801443022
aF0.6031216673702813
aF0.6022238589413659
aF0.6018516830249387
aF0.602427161197503
aF0.6023408070929251
aF0.602420789613208
aF0.602515920339306
aF0.6042731508713074
aF0.6075469162882694
aF0.6122161765836638
aF0.6167809007599875
aF0.6209726571022379
aF0.6248373124537764
aF0.6293020313268989
aF0.6342958467841586
aF0.6394750768699238
aF0.6441592733308271
aF0.6480518689802545
aF0.6510759809073007
aF0.6533591775603861
aF0.6551301893188506
aF0.6565542681042728
aF0.6575913427609393
aF0.658059879383644
aa(lp254
F0.6215111156984895
aF0.6228936742627998
aF0.626023859785798
aF0.6302404981288476
aF0.6344163842555618
aF0.6373067016252079
aF0.637471274411305
aF0.6342446346938352
aF0.6275129302376913
aF0.618093759174855
aF0.6067101067284096
aF0.5948358419077642
aF0.5836221344896729
aF0.5756401603172443
aF0.571828947618743
aF0.5737755859173485
aF0.5797876791722912
aF0.5892831676206108
aF0.6001154097955625
aF0.6124941946907841
aF0.6250997821154963
aF0.6368039018580914
aF0.6448430079976122
aF0.6486370175745798
aF0.6487226232273487
aF0.6473984659480897
aF0.6456145278087263
aF0.6437585609537514
aF0.6414860127236072
aF0.6387954946858952
aF0.6358163881806829
aF0.6328177705463319
aF0.6301503163900465
aF0.6281233002446828
aF0.6268763026442028
aF0.6263965042861207
aa(lp255
F0.6245028712970134
aF0.6275301896495238
aF0.63440079060649
aF0.6438120924395356
aF0.6534389181542699
aF0.6607226943892927
aF0.6625516014197375
aF0.6574091917607138
aF0.6450499770093528
aF0.6272490991119698
aF0.6057939178555617
aF0.583364517409553
aF0.5625121237454954
aF0.5473635701348035
aF0.540500300867205
aF0.5440909847844978
aF0.556336803939456
aF0.575192012037227
aF0.597033495753878
aF0.620451931930374
aF0.6428839255397687
aF0.6619626037438796
aF0.6736036821077905
aF0.6769732546591404
aF0.673161067216023
aF0.6660176953791764
aF0.6575012001264876
aF0.648690655706537
aF0.6394853173802354
aF0.6301477014533966
aF0.6209968503568349
aF0.6124394897718958
aF0.6049315361680837
aF0.5989667550185701
aF0.5949715587306387
aF0.5933126255850648
aa(lp256
F0.6224982487978311
aF0.6276518077015409
aF0.6393477680008394
aF0.6553895114191777
aF0.6719729927813184
aF0.6852569577497419
aF0.690068844563422
aF0.6837487632289143
aF0.6652612764307974
aF0.6378509702875705
aF0.6046707014709957
aF0.5700813623586051
aF0.5378148956350614
aF0.5141516057242312
aF0.5037136793721049
aF0.5097964892651915
aF0.5296875612862922
aF0.5594770201060585
aF0.5936178793927506
aF0.6291630161251569
aF0.6621653844253945
aF0.6888502065991488
aF0.7040061675886085
aF0.7067201133678083
aF0.6988398011993501
aF0.6856774172438277
aF0.6701937714858666
aF0.6541496878340539
aF0.6377507900997598
aF0.6215172842958796
aF0.6059160640384791
aF0.5914459190720448
aF0.5786217815295865
aF0.568157753821638
aF0.5608892867932611
aF0.557792174745645
aa(lp257
F0.6125272028302605
aF0.6206575302578163
aF0.639076310613619
aF0.6642982849213658
aF0.6906359588807337
aF0.7124879885601288
aF0.724974710914836
aF0.718036696385282
aF0.6926320468278244
aF0.6508659511880966
aF0.6034764848260615
aF0.5539139058351635
aF0.5074362443459912
aF0.4700016934875824
aF0.45520040642727994
aF0.46475350381977615
aF0.49761789989908994
aF0.5410758598174571
aF0.5900818706428231
aF0.6400734537246925
aF0.685533896333645
aF0.7210144169913657
aF0.7396755522939524
aF0.7407992683874763
aF0.7274579421834968
aF0.7071381516111899
aF0.6838428642784266
aF0.6599972736939167
aF0.6359572934682284
aF0.6124831391393121
aF0.5900911722088572
aF0.5692528178935107
aF0.5504417011899095
aF0.5346405221250697
aF0.5233057453487112
aF0.518376093531162
aa(lp258
F0.5917020366867117
aF0.6041424279763342
aF0.6321842980845207
aF0.6702885511047326
aF0.7103146235417398
aF0.7442675760182218
aF0.7639594366527639
aF0.7855615456126392
aF0.723210357899882
aF0.667300669937028
aF0.6024777355036974
aF0.5342714145954086
aF0.46949727686105724
aF0.41771236828335523
aF0.3657077478144923
aF0.4107265012270136
aF0.4570096064945874
aF0.5187721714987777
aF0.5867806518531754
aF0.6545451728872601
aF0.715549044076876
aF0.7614641290794992
aF0.7838536704993905
aF0.7810334973942591
aF0.7598953966250711
aF0.7303215075106374
aF0.6982839418506391
aF0.6659437975274375
aF0.6338554857215202
aF0.6028627157266659
aF0.5733281561184401
aF0.545444741499674
aF0.519658808075958
aF0.49733115143784845
aF0.4809701729837604
aF0.4737355048618623
aa(lp259
F0.5533624633713974
aF0.572841276927566
aF0.6159774560918526
aF0.6728091658883019
aF0.7321926024727169
aF0.7826775875791769
aF0.8126193886106866
aF0.8055281663682751
aF0.7618713863611739
aF0.6887527531662402
aF0.6029683152421751
aF0.5117330116459461
aF0.4231641742433498
aF0.3495808685491242
aF0.3187988171790393
aF0.3384309422150413
aF0.40504454418684627
aF0.4916358216630145
aF0.5846547196263397
aF0.6743166310365382
aF0.7530981083035715
aF0.8177331166011351
aF0.8424360482819582
aF0.8338598795898946
aF0.7949784234324365
aF0.7546156664045527
aF0.7124686398495634
aF0.6709601384458885
aF0.6308332278252248
aF0.5924643726310116
aF0.5556293285564514
aF0.5199661599481439
aF0.4857078927488505
aF0.45453965639600624
aF0.4307037593504077
aF0.41984269009524694
aa(lp260
F0.48449677467630536
aF0.5191400656353825
aF0.5881305997585695
aF0.6731427050186646
aF0.7563323433629788
aF0.8324088123562617
aF0.8776477711315307
aF0.8715900591982647
aF0.8124493143515944
aF0.7172565299639824
aF0.607971706414364
aF0.4886445186160271
aF0.36872120232169997
aF0.2615266599088939
aF0.19144163476431475
aF0.23964383998119998
aF0.3366281739294122
aF0.46019350886969684
aF0.5846137642834567
aF0.700471374101515
aF0.7984563949641424
aF0.8715254857998517
aF0.9760363532065885
aF0.8809344327440859
aF0.8306397555767386
aF0.777975050863558
aF0.7247458315710386
aF0.6742138675625658
aF0.6269390987399346
aF0.5820334352165063
aF0.5382752492199511
aF0.494442874509257
aF0.4505096794551278
aF0.40593525271934777
aF0.368710217039858
aF0.34993874426114924
aa(lp261
F0.3600981209729241
aF0.4269714470178128
aF0.5571787740417001
aF0.6721410205303663
aF0.7877346631692946
aF0.884201251353578
aF1.0
aF1.0
aF0.872223787075456
aF0.760526446732212
aF0.6198574619970234
aF0.4721042013043246
aF0.3092345274279666
aF0.14829266925011797
aF0.0
aF0.0778466371625812
aF0.2622390583111906
aF0.423844406831871
aF0.5862415497119603
aF0.7385547524576506
aF0.8554185913315253
aF0.9351860483807322
aF0.9512340485830059
aF0.9287878071937276
aF0.865002654335889
aF0.7965011930482518
aF0.7331916754453564
aF0.6754271383819889
aF0.6229762134402007
aF0.5733738090046558
aF0.524124639007895
aF0.47344967177481473
aF0.41896117706875224
aF0.3599523941055282
aF0.2857229564753086
aF0.24825933652950197
aa(lp262
F0.0
aF0.3754556297650188
aF0.5393818277350869
aF0.6717687036852067
aF0.8037043371202455
aF1.0
aF1.0
aF1.0
aF1.0
aF0.803433723047401
aF0.6444957698530653
aF0.4643514422774231
aF0.27840228567885744
aF0.0
aF0.0
aF0.0
aF0.15360999343786785
aF0.4052393707571547
aF0.5875202489091977
aF0.7587967743842152
aF1.0
aF1.0
aF1.0
aF1.0
aF0.8819766289292028
aF0.8051718097685895
aF0.7367598826613768
aF0.6756519321664627
aF0.6193961471709211
aF0.5693001712248613
aF0.5175140357767203
aF0.463494637670247
aF0.40372018453944897
aF0.3179414890275268
aF0.24151949437701092
aF0.0
aaaa.