(lp0
(lp1
(lp2
(lp3
F0.9399258058866291
aF0.9669153344869519
aF0.9754146352568555
aF0.9651133073671301
aF0.9309500822411242
aF0.9571514892925383
aF0.9601130268362355
aF0.954451229586217
aF0.9394152325501894
aF0.9384553265602984
aF0.9320130763396695
aF0.9357211082229594
aF0.8356951259020613
aF0.799050974322189
aF0.8076688962240427
aF0.7339779598531058
aF0.6725925192521075
aF0.6218241726099792
aF0.4999599361147896
aF0.40350800781370966
aF0.35587314759108746
aF0.3096371406854662
aF0.2588802769368926
aF0.19021872960279412
aF0.1760689518444144
aF0.14583871229919326
aF0.10282818896376159
aF0.11272458755078339
aF0.06274330469855097
aF0.08671981002485697
aF0.05418421063296346
aF0.02697213819482809
aF0.04457910313870356
aF0.03910134790565317
aF0.028267616695106294
aF0.03302421947628273
aa(lp4
F0.9722750523303683
aF0.9719525426953896
aF0.9748812026322485
aF0.9731810546228226
aF0.9703282436492774
aF0.9588770841349309
aF0.9637497892580641
aF0.953988735449903
aF0.9442464338634883
aF0.9365925834681027
aF0.941817593008376
aF0.9432932858160629
aF0.8727514915804497
aF0.8214788149758033
aF0.7807751552104829
aF0.73119746811112
aF0.6801423815497074
aF0.6695887779577816
aF0.4080231783156065
aF0.40563257836129823
aF0.3563910082979021
aF0.30674602870013024
aF0.267921011099263
aF0.218715674590945
aF0.18146206382835559
aF0.14348989362615927
aF0.12472477795865071
aF0.08592660196585161
aF0.06742977362889455
aF0.028557182380850026
aF0.04945257780453415
aF0.07869613874800907
aF0.04641337560400779
aF0.039060854115203124
aF0.038653715440019755
aF0.035175935686702874
aa(lp5
F0.9740859936641323
aF0.9733436525697692
aF0.9573593884431713
aF0.9720320972795699
aF0.9721609015424099
aF0.960352606949944
aF0.9550897260183944
aF0.9525681902227615
aF0.9474654225547502
aF0.9344512214127572
aF0.9177000173241919
aF0.907539495390639
aF0.8864413349026435
aF0.8532917505303806
aF0.7767856741785898
aF0.7239952028574894
aF0.6754503846427624
aF0.6149365163926622
aF0.4672152219860802
aF0.41039834561689703
aF0.35203159076644935
aF0.309850252751248
aF0.24197572088235542
aF0.25778747368113925
aF0.17720577137414265
aF0.1416116201073107
aF0.0972181777845309
aF0.07282598923037392
aF0.04657720091701064
aF0.018695691558120363
aF0.049040108525958394
aF0.052482050309066296
aF0.04227791774857156
aF0.048932451358000235
aF0.054552169618385195
aF0.0344862894826831
aa(lp6
F0.9779238554760687
aF0.973685641377101
aF0.9833363200677081
aF0.9763563609741057
aF0.9683953605636013
aF0.9594539317787288
aF0.9331758562645431
aF0.9577462528583198
aF0.9674129709750563
aF0.935304940014528
aF0.9205219026564655
aF0.8935990588657899
aF0.8846912363902738
aF0.8187012387936973
aF0.764644003290635
aF0.7179545292748714
aF0.6628837973942475
aF0.612490072241788
aF0.49341381649362653
aF0.38836594101307015
aF0.36835663645162386
aF0.2784139952939869
aF0.25767069770003775
aF0.19402999479836058
aF0.17794280780270325
aF0.10223070172816952
aF0.06439896817729865
aF0.042142993999784883
aF0.05384860441671313
aF0.0030511565094087116
aF0.03871595928397706
aF0.04721940810454009
aF0.06954562475587743
aF0.043414172445606164
aF0.04193375872768831
aF0.04792634562847433
aa(lp7
F0.9747098631880702
aF0.9725564969679167
aF0.9739660202308021
aF0.9772122517376833
aF0.966480725880832
aF0.9618124600105877
aF0.9566600082322846
aF0.972505511343812
aF0.94564610094223
aF0.9321147573572915
aF0.9110371960489888
aF0.885570858606609
aF0.8462022722461716
aF0.7805133052088462
aF0.7306149904112494
aF0.7127379865295362
aF0.6935229180203113
aF0.5504883299135085
aF0.4970895855016497
aF0.41295380564184864
aF0.35773005420923804
aF0.3101481241789035
aF0.2462738460058939
aF0.2228106510747244
aF0.17308166405344097
aF0.06911779056593044
aF0.0962305512905638
aF0.07317276788750332
aF0.05280415293392881
aF0.0488242803252091
aF0.03419642464113918
aF0.04868085058364929
aF0.045928064697273174
aF0.04272660273827349
aF0.040358693646644635
aF0.041390150702703264
aa(lp8
F0.962184007773704
aF0.9653704312646842
aF0.9667667530395742
aF0.974629734356388
aF0.9582998025519194
aF0.9537199445267849
aF0.9488016690606399
aF0.9183605002427844
aF0.935038022906355
aF0.9223169801217517
aF0.9023901151069053
aF0.8719303055145939
aF0.83034385289029
aF0.7889629378697055
aF0.742512934205006
aF0.7032637660352187
aF0.647274501170331
aF0.6309949211063773
aF0.47687257534583594
aF0.41157029749091073
aF0.35049713518947545
aF0.3146367490296986
aF0.2636358513461119
aF0.21894047727731955
aF0.17861280551443184
aF0.13811988666919042
aF0.1086617598171488
aF0.1082411855341832
aF0.06524872989649375
aF0.061736106436230585
aF0.08238013622710075
aF0.05468614278927368
aF0.01963686592908618
aF0.04479414250097642
aF0.037528637057635636
aF0.039206666375133294
aa(lp9
F0.9402139345153478
aF0.9557644636470188
aF0.9577684467003512
aF0.954345742800717
aF0.9514664195776672
aF0.9429737924094299
aF0.9363248894135826
aF0.9426120107681534
aF0.9238766809470015
aF0.9101743979626767
aF0.8970157808336006
aF0.862450999821352
aF0.8156473674045306
aF0.7756589111666075
aF0.7388785633520105
aF0.6995391550327379
aF0.6661623352611962
aF0.6392065911640148
aF0.5174031515882968
aF0.4257499876915715
aF0.36349621220973233
aF0.3178386400028046
aF0.250020752589392
aF0.22802000483428642
aF0.19035953269263614
aF0.16783238068004114
aF0.1252853764446286
aF0.09382805150221425
aF0.07939421907477817
aF0.0651525122701308
aF0.06727542386438325
aF0.0539766720328943
aF0.048329755099303276
aF0.01089736794185421
aF0.042076035174844734
aF0.04838658124392268
aa(lp10
F0.9492812000742279
aF0.949622279837489
aF0.9491713179993608
aF0.9432451574773195
aF0.9426552993472125
aF0.9354269521363063
aF0.9081655995701126
aF0.9338273050168826
aF0.9180064672222099
aF0.8987005493160202
aF0.8674866492862376
aF0.8297607947718443
aF0.7951665055733294
aF0.76379236024943
aF0.7292016147129486
aF0.7137288879728793
aF0.6614431745993753
aF0.6383847861117119
aF0.482679044049944
aF0.4343189215450349
aF0.36971447591236983
aF0.31696229554521044
aF0.27961204794537325
aF0.23664309375574663
aF0.19499128664377743
aF0.16261602631003433
aF0.12217718953365672
aF0.10435183051400047
aF0.0866436334621174
aF0.07524830061243483
aF0.06618079124145938
aF0.06414610757124675
aF0.027801911097812756
aF0.01636434591827775
aF0.04863873663749649
aF0.07646703856140764
aa(lp11
F0.9479914228740839
aF0.9457978532935929
aF0.9433272375150268
aF0.9393380572174815
aF0.9368990044231728
aF0.9323349055211513
aF0.9260303589518019
aF0.9225863126658027
aF0.9148282380251308
aF0.891044660402196
aF0.8302953813433891
aF0.8087411003105291
aF0.755074433680927
aF0.7540543150985295
aF0.7487833622637446
aF0.6934869462495047
aF0.6511661011900034
aF0.5942991761206899
aF0.46566774165209374
aF0.42735454858256805
aF0.34520728395025685
aF0.3208624695679886
aF0.29004203045711213
aF0.2776026450837915
aF0.20895231888843063
aF0.1557787644068642
aF0.14059438700612983
aF0.08679676936708106
aF0.10272195913125243
aF0.08432440509961656
aF0.05055283087769783
aF0.06739383515978233
aF0.06591343662132616
aF0.06367937230340505
aF0.06489549642160788
aF0.0703788807863494
aa(lp12
F0.9425983883739368
aF0.9466460924585112
aF0.9310226786034291
aF0.9247945830914074
aF0.928708481039888
aF0.912285461420093
aF0.9151052244325494
aF0.9095518016202697
aF0.8895519457287421
aF0.8656769920351861
aF0.8342484986975819
aF0.7854074629370582
aF0.7705310175381342
aF0.7759367437817177
aF0.7221939064336257
aF0.6898887535417226
aF0.633765138941964
aF0.5864093448836426
aF0.4332458803555263
aF0.4219592490212554
aF0.37664004800922735
aF0.33426812952110935
aF0.2993294138140096
aF0.27155463627960774
aF0.2341162350064306
aF0.18473027368349837
aF0.16208376219388804
aF0.14830118128850736
aF0.1285716095014476
aF0.10776309936555278
aF0.05250763073629816
aF0.08511378484493903
aF0.088385863244944
aF0.11393463893783706
aF0.0833135158237491
aF0.07857232632086093
aa(lp13
F0.9102084058094847
aF0.917347423172276
aF0.9140097265783708
aF0.9153648765695325
aF0.8715784771358223
aF0.8992071245202274
aF0.8851814849791522
aF0.8772874576434236
aF0.8681536645595765
aF0.8559145227377969
aF0.8290015273393103
aF0.7989261769693262
aF0.7650738075053157
aF0.7197274904460951
aF0.7137957711240087
aF0.6826260395646374
aF0.6568973636523746
aF0.6037639646046529
aF0.4660420909023
aF0.4385032780586574
aF0.3808450455652847
aF0.34306630032324886
aF0.31651100616022737
aF0.28967576565687075
aF0.25475394380835353
aF0.22889842333577817
aF0.1954433951671308
aF0.19770751541883874
aF0.17355936680440642
aF0.1439577419213554
aF0.12350750248348157
aF0.11679390064717532
aF0.11494911626486518
aF0.10825882104007045
aF0.10520180273770702
aF0.12666609890349156
aa(lp14
F0.884719871945194
aF0.8861103258670013
aF0.886939177646807
aF0.9024243786251507
aF0.9669692597963931
aF0.8689393972301084
aF0.8408254026440146
aF0.8507744507982999
aF0.8497646791247632
aF0.8338781717749851
aF0.8646632051944648
aF0.7846751222142057
aF0.7539003096298954
aF0.7305376263025044
aF0.7124569905766539
aF0.7088103250211045
aF0.6449549351471379
aF0.5830556238728305
aF0.4417015370205115
aF0.4258080265070377
aF0.39185891007757406
aF0.35220061763935767
aF0.3307526293333378
aF0.30933511555863397
aF0.2872382446784288
aF0.263672283251223
aF0.24876181789821009
aF0.22634889093479124
aF0.238337862062826
aF0.15913087385601604
aF0.16713940557063867
aF0.15487941061064134
aF0.14709431910635867
aF0.14555476928863073
aF0.14298074853226872
aF0.11770969765422079
aa(lp15
F0.8656371693370277
aF0.8440100633664697
aF0.8658535118791086
aF0.8506235728787409
aF0.8024577334662745
aF0.8192842189761192
aF0.8627247587205548
aF0.8010935051945073
aF0.8138835670090582
aF0.8069131447478809
aF0.7549859134341205
aF0.7624002389916859
aF0.7411761444970061
aF0.7249097118261094
aF0.7108199224837876
aF0.7081358848707492
aF0.6088758625789437
aF0.6073660886545547
aF0.45607203289408826
aF0.44354371969105205
aF0.3955085792182976
aF0.36564968762748573
aF0.34481359577110743
aF0.3295087009820495
aF0.3209875679142343
aF0.30039279566398835
aF0.27286438960535864
aF0.26306834414821345
aF0.22037390508976828
aF0.22289801174628768
aF0.20657357108826593
aF0.19369790987920485
aF0.18459195681777998
aF0.1827060890557731
aF0.18159083235802276
aF0.1790934088240334
aa(lp16
F0.7951659735889539
aF0.7726112461888789
aF0.7952967296722099
aF0.7936089388427899
aF0.7924560486587954
aF0.8210665698921855
aF0.7922364914084374
aF0.7913210002286576
aF0.8296384614757328
aF0.7673821379631622
aF0.7403249669343529
aF0.7286897246599375
aF0.7269626048171117
aF0.7186427801643095
aF0.7032155559543578
aF0.6795621726843598
aF0.6303302819778994
aF0.584824683984892
aF0.49076723461493904
aF0.423997534684088
aF0.3991624913075594
aF0.37617576727688523
aF0.3479230659149583
aF0.3513261037796958
aF0.34245162360709475
aF0.3284638107055806
aF0.3123553012887815
aF0.2934016198904072
aF0.2796283518447158
aF0.2659462960581835
aF0.2463671327608359
aF0.24264498660307804
aF0.20037734352998382
aF0.22886101724200422
aF0.2304946925130337
aF0.23149584018538774
aa(lp17
F0.7467012908101467
aF0.7469256029656519
aF0.742272502183593
aF0.747308756817201
aF0.7539093763601
aF0.7515870473751983
aF0.7501906678191924
aF0.7461794205648258
aF0.7396971243430057
aF0.7047194110564969
aF0.6882695554573928
aF0.7065651199154788
aF0.7039105439237606
aF0.7249275152606316
aF0.6955384243559004
aF0.6626469266191634
aF0.6304791820215621
aF0.559596341897085
aF0.440458398291801
aF0.4096291708955627
aF0.40252208659354277
aF0.38628315287910536
aF0.37833416786906576
aF0.3738638769613464
aF0.3716765330650035
aF0.3592789029654959
aF0.34383732004769996
aF0.3344711367911763
aF0.3200875921333251
aF0.3170229841263486
aF0.3208727736940063
aF0.31451798753898946
aF0.28278609822875284
aF0.27410981462839273
aF0.2847790310647315
aF0.28743105471717395
aa(lp18
F0.6936860958457115
aF0.674894451487735
aF0.6958369711568252
aF0.719762387452108
aF0.7016589506388043
aF0.7057340706448604
aF0.6998959743046016
aF0.6990600256385144
aF0.694362728274671
aF0.6871091991412385
aF0.7061157726510535
aF0.6733016503774029
aF0.6712027473867562
aF0.6730506133584061
aF0.6673375746205104
aF0.6505073898242909
aF0.6435467578113666
aF0.6316637888615549
aF0.423651784580162
aF0.4379932941952387
aF0.4168469880747841
aF0.4080587066589582
aF0.3952564308841952
aF0.3969526091481887
aF0.39667114568076073
aF0.39161081187782504
aF0.3832986259642327
aF0.37150246512948915
aF0.3714566900347764
aF0.3526383277022981
aF0.3795473222040524
aF0.3468046668599038
aF0.3273067625729513
aF0.32989860491724127
aF0.31174892192097947
aF0.38322118140124434
aa(lp19
F0.6384474206000355
aF0.6174873457300505
aF0.6353064777828824
aF0.6856181478644401
aF0.6694062755956363
aF0.6430294960463713
aF0.6484171804794611
aF0.6487375485428571
aF0.663127419925094
aF0.6559022366514679
aF0.6322323692001586
aF0.6277471841479941
aF0.6195510534342988
aF0.6342463925312133
aF0.661368749209313
aF0.5913703031632811
aF0.5894088038572748
aF0.5452510438902105
aF0.4478301661126598
aF0.42523879854046653
aF0.43296417223637
aF0.43350406473277536
aF0.4201761321355734
aF0.4397444794075937
aF0.3998597400303663
aF0.3909319721119914
aF0.3847903642443339
aF0.4143883135253405
aF0.42006504725964744
aF0.4474227964246823
aF0.4347482887990288
aF0.44283178061984796
aF0.4193308999487549
aF0.3993589094873222
aF0.3530089588892441
aF0.41142209518833445
aa(lp20
F0.5558496575152816
aF0.5531435484495387
aF0.5654116997731912
aF0.5730530650347725
aF0.5687446496890421
aF0.5681522452904101
aF0.5964211915428019
aF0.6275292317825567
aF0.6653533858146172
aF0.6274326995563377
aF0.5737065483170529
aF0.5585418614584697
aF0.5558973339407057
aF0.5613035129359739
aF0.661421183212609
aF0.5482937523992651
aF0.567933846226973
aF0.5379996569228224
aF0.5153925436021453
aF0.45822227154560563
aF0.4211130133163795
aF0.464153782960499
aF0.47300068510541693
aF0.48316851865323174
aF0.43722861663059054
aF0.42885347777929367
aF0.42884005640378636
aF0.49075145944468074
aF0.4652321829685179
aF0.5009540778743943
aF0.4586273495859124
aF0.5183727320799629
aF0.5169267628117349
aF0.5012817345080675
aF0.45900134792330305
aF0.4551834634694781
aa(lp21
F0.47195028819333434
aF0.4672119347661851
aF0.4796190587361671
aF0.48586746127644154
aF0.47242215141488836
aF0.4537122999801315
aF0.4955276915227828
aF0.4546149799698438
aF0.4485412312627941
aF0.5127763678380756
aF0.5033147603327607
aF0.488675653780561
aF0.48493755919303627
aF0.4875338450507419
aF0.39489988942993465
aF0.4259851718715745
aF0.49387224776144373
aF0.5266805064614491
aF0.6105439448666474
aF0.5593058732583648
aF0.5689112175735266
aF0.6248870554663116
aF0.5730646509250347
aF0.5558565096488581
aF0.5523493213915346
aF0.55901856598823
aF0.6318148692140976
aF0.6018695950503447
aF0.5788191145148857
aF0.5783830428396542
aF0.6233464468559494
aF0.5962150667225438
aF0.6750261772098451
aF0.6124135083535789
aF0.5968266748756208
aF0.5671500526702477
aa(lp22
F0.3967398699985038
aF0.39137322974993144
aF0.38967384549270356
aF0.41405691734036487
aF0.42531714053354375
aF0.41447072437800525
aF0.42272947130307026
aF0.4287415012609468
aF0.4367816178400472
aF0.43286449589234616
aF0.43250027186754
aF0.4272209365690343
aF0.3986130691247047
aF0.4230643566870019
aF0.4325672674464312
aF0.43844349499540947
aF0.4566913837303423
aF0.45397849881830704
aF0.5642245019907667
aF0.6588592107431139
aF0.6601164202005181
aF0.6967879626750828
aF0.6417637965316155
aF0.6283846510224455
aF0.6318239572051843
aF0.6701354945257041
aF0.6785907812839842
aF0.6518778212712112
aF0.6856127899206073
aF0.653880249164152
aF0.658245281563566
aF0.6661318066689623
aF0.6675809611770654
aF0.6697761123436835
aF0.6765718848377067
aF0.6501643173325087
aa(lp23
F0.36406111016561526
aF0.37227191086597805
aF0.36870073585095037
aF0.3693227831127955
aF0.35366228893610585
aF0.3534418721570206
aF0.3863338548196518
aF0.3964348387865014
aF0.3904103170332044
aF0.3748930922150766
aF0.38022784326118964
aF0.36375400318797313
aF0.3878154203547007
aF0.40123451355209544
aF0.40848178117474937
aF0.42495840952930874
aF0.44399855220651047
aF0.4670098053525274
aF0.5735536991005062
aF0.6422529864188031
aF0.693767642974917
aF0.6799221948577836
aF0.6780113640225083
aF0.6785997984263408
aF0.685513551746998
aF0.6975073172018642
aF0.7195839393618825
aF0.6946440402871725
aF0.7025842596280868
aF0.6993116291113651
aF0.7007950558013024
aF0.7021129877743427
aF0.7088890119196442
aF0.7122478841961922
aF0.7073067417785333
aF0.7058221220011741
aa(lp24
F0.32801825365712184
aF0.331484400875255
aF0.35540837775360506
aF0.3262406697330247
aF0.32174853737812137
aF0.33112526610222853
aF0.34380959056806404
aF0.3552639020347479
aF0.36201994402401144
aF0.36828457795301794
aF0.40704903780501434
aF0.3439810895308642
aF0.3711712796429396
aF0.3802198891642386
aF0.394143553740082
aF0.40634508104845546
aF0.40668409686490686
aF0.4959238093467447
aF0.5765539128799041
aF0.7142906990273877
aF0.6811416423452288
aF0.686205042124113
aF0.6965195736540217
aF0.7038102448339222
aF0.7440582079610852
aF0.7141880212695099
aF0.7233733909466027
aF0.7560197635288575
aF0.7353042157694165
aF0.7413630314588094
aF0.7145806811012866
aF0.7465065802673775
aF0.7578330448143268
aF0.7471520245526486
aF0.749084039098032
aF0.7478848709920249
aa(lp25
F0.2743084947064149
aF0.2804153766983627
aF0.2841518557706422
aF0.3096503039664768
aF0.28354679465991
aF0.2954380252223627
aF0.3074435400140661
aF0.32397980728435083
aF0.3306637056245502
aF0.3438899738974006
aF0.3462336874267208
aF0.37459483498947493
aF0.3508171073944558
aF0.368540428711321
aF0.3608627722108814
aF0.4014233645761229
aF0.4088535804232209
aF0.489543747465866
aF0.59583642313583
aF0.6449833533126919
aF0.6840046431743763
aF0.6963177002296875
aF0.7074461838978927
aF0.7230615927421562
aF0.7108138556741056
aF0.7486420597856617
aF0.7351359083034343
aF0.7737148648363301
aF0.7767743993947532
aF0.7802445061645683
aF0.7878291540107426
aF0.7937241325583055
aF0.797053684190999
aF0.7842118221902555
aF0.7600137189633088
aF0.8138084339023687
aa(lp26
F0.19639755154578908
aF0.22541367693342834
aF0.22894546465257914
aF0.22879144242240693
aF0.23421465213166762
aF0.2493524852027853
aF0.26790292658103987
aF0.28423867579042017
aF0.3150153843955327
aF0.3094529020319674
aF0.31343475294344303
aF0.32783399206451697
aF0.32221964070507986
aF0.3600983495292207
aF0.4085787552675363
aF0.4058034386592978
aF0.4190772552989728
aF0.4473525974853801
aF0.564988733428922
aF0.6528652868761776
aF0.6873884216282464
aF0.7057298343815981
aF0.7203311961089818
aF0.7430382682707677
aF0.7595415983198867
aF0.7800430582414417
aF0.7874851172451507
aF0.7984129832411853
aF0.8101370069914289
aF0.8216826928314603
aF0.8569687374226798
aF0.8844691012330397
aF0.8382390264458516
aF0.825366986776967
aF0.8000252979906907
aF0.8270623018384424
aa(lp27
F0.17668997952483445
aF0.1691280951239208
aF0.17814545507448254
aF0.21352241768108832
aF0.20104726668551964
aF0.2126427853390028
aF0.22572401026797792
aF0.23168721782354687
aF0.27066255353956997
aF0.26508213262937863
aF0.29239575842719134
aF0.30234696452986787
aF0.3213204422484323
aF0.3510152109750663
aF0.3782533421001253
aF0.39643800502971666
aF0.40323768033797236
aF0.39976466412966993
aF0.5557462472020801
aF0.6949935044204526
aF0.6821503195501085
aF0.7020840906437619
aF0.7289746111740838
aF0.757892082914779
aF0.8381865295997473
aF0.8078904727648704
aF0.824143666811977
aF0.8319528748694726
aF0.8486409802685828
aF0.8521411584000068
aF0.8631940040738486
aF0.8645481472958455
aF0.8698719892470851
aF0.8889502385656527
aF0.8677560459327015
aF0.8954666402127291
aa(lp28
F0.11064262833189582
aF0.1333297338659028
aF0.1282741988943253
aF0.1278451649027981
aF0.15778352143689833
aF0.18414229150792177
aF0.1803252442042189
aF0.19464666225611282
aF0.216275473789335
aF0.2681270559836721
aF0.29304413483715536
aF0.26165903184353234
aF0.3076403235060323
aF0.33577768036158256
aF0.3710705206060502
aF0.39450508861504574
aF0.387896667753758
aF0.4705900674936078
aF0.582227199162261
aF0.6330058471421025
aF0.674897786968651
aF0.706551565034168
aF0.7113644948563284
aF0.7670741075003749
aF0.7973399018944062
aF0.8197350626393237
aF0.8463266393912553
aF0.9196123939639549
aF0.8743051874039509
aF0.881966583253133
aF0.8874796887037348
aF0.890795064524971
aF0.8710848597177463
aF0.8972265999307623
aF0.9081940931937377
aF0.9019138074692816
aa(lp29
F0.10862028568641831
aF0.10204146370683471
aF0.09560562516226351
aF0.0998242211918169
aF0.09319151537684355
aF0.1305233661617529
aF0.13844436721548023
aF0.11756385519492124
aF0.1760935093127913
aF0.2065102487080312
aF0.24446923665580433
aF0.2681868334600757
aF0.2992884519108305
aF0.2985021282057473
aF0.35569891202275744
aF0.3875539247224192
aF0.4402166606680007
aF0.43812495564996534
aF0.5573560532798391
aF0.6350755135730782
aF0.6816739448822658
aF0.7027215320948185
aF0.7442639510260166
aF0.7624430771729246
aF0.7989287054816033
aF0.8301726903568255
aF0.862096197955414
aF0.8766550594029797
aF0.8997742213481543
aF0.9165061124858959
aF0.9131988310600149
aF0.9172677634197846
aF0.8931912424753541
aF0.951808228574076
aF0.934914479202802
aF0.9275570899175305
aa(lp30
F0.08665614221180713
aF0.08085567614317596
aF0.07485727993664196
aF0.020907859119019837
aF0.10180470846566468
aF0.08361428726763737
aF0.1049411760777418
aF0.12001232972947933
aF0.1482913166502704
aF0.15465233315486349
aF0.25083775535309333
aF0.2509051711950698
aF0.2848377254883992
aF0.31910708800238224
aF0.35083157021252
aF0.38672592207041734
aF0.4083784032704236
aF0.435665146417406
aF0.5947852658100227
aF0.6705838682756706
aF0.6874424448532169
aF0.7132216712728651
aF0.7033388386855275
aF0.768495934430797
aF0.8120670445434316
aF0.838233205508142
aF0.870723665690155
aF0.8971883063678722
aF0.9114010984190449
aF0.9213989094415803
aF0.9323087372814494
aF0.9391258369648531
aF0.940200602896685
aF0.9410032354242763
aF0.9463574811896284
aF0.9450797441775629
aa(lp31
F0.06145993125889554
aF0.07822071016585329
aF0.07019489045200501
aF0.058060962657422166
aF0.06050950898294206
aF0.07797702164460862
aF0.08671526260828195
aF0.09927528821395541
aF0.12395723778320081
aF0.12156401097344073
aF0.18771776922607636
aF0.20410050076884778
aF0.2674655253946899
aF0.3052738481185279
aF0.3455087142945348
aF0.3781686453167192
aF0.4263818046994913
aF0.5124687934416694
aF0.6652440135155014
aF0.6597603129393214
aF0.694193412326447
aF0.7440188757626399
aF0.749912449926064
aF0.7970624462478612
aF0.8171992478254548
aF0.8869045452646414
aF0.9119684490868211
aF0.9214976220241804
aF0.9234600362822486
aF0.9349885724338172
aF0.9396722530241749
aF0.9452143420790918
aF0.9495129965088172
aF0.9538819025784653
aF0.9576154407172565
aF0.9578366418261165
aa(lp32
F0.07461209436329566
aF0.06569422959723646
aF0.05770378352769512
aF0.00872527707293394
aF0.05736127014316167
aF0.0668367507720838
aF0.07185832356017603
aF0.0725624196629084
aF0.06970410271110944
aF0.12155253740579315
aF0.1590537150076218
aF0.19924160818999104
aF0.2729663603916864
aF0.3029543296998739
aF0.3419315847711952
aF0.3777288822240094
aF0.3967241181675529
aF0.5128278974439947
aF0.660296667131922
aF0.6624628093578105
aF0.6951915304591337
aF0.7220219351629461
aF0.7611373564842575
aF0.7911611143055177
aF0.8284971902313285
aF0.8646836414022653
aF0.8961846086994304
aF0.9188208944738933
aF0.9373829237476788
aF0.9449244799819447
aF0.9465971999736755
aF0.9536631405820792
aF0.9612304517977517
aF0.9645054336878914
aF0.9656236147519734
aF0.9596816350267604
aa(lp33
F0.06456205324338198
aF0.05636651339185669
aF0.05004148755459898
aF0.05608190544715591
aF0.05914792612422473
aF0.06015658564523362
aF0.058052168799348484
aF0.056751830083923024
aF0.10822791810266062
aF0.107092161840943
aF0.1514048599745178
aF0.1998923104680116
aF0.2637675350931596
aF0.28556475420402444
aF0.33472937673276915
aF0.37545585845171214
aF0.42184473254295435
aF0.4368462629782378
aF0.5837336557320146
aF0.6850113675421969
aF0.6952717728780393
aF0.7281113883109213
aF0.762574782658328
aF0.7946059302823413
aF0.8071085172855323
aF0.8659548569361574
aF0.9009644426402689
aF0.9207290636737235
aF0.9374277205760811
aF0.9433493365811902
aF0.9536107619776603
aF0.9575365837127171
aF0.9667047518074251
aF1.0
aF0.9626335317813225
aF0.9538871995979387
aa(lp34
F0.04755846240949779
aF0.020329557672619795
aF0.05682197841843045
aF0.06350475152426992
aF0.08228535784901503
aF0.0535257112170438
aF0.03009843773151622
aF0.08791386715462297
aF0.07976003591491056
aF0.10970673863557706
aF0.1315743286904681
aF0.18719196841085853
aF0.23599044885426773
aF0.28640454269119725
aF0.3278917481709767
aF0.36428553195728364
aF0.41303580044700877
aF0.45460100005636517
aF0.6134747442641866
aF0.6452684243561168
aF0.6933635053779791
aF0.731690313986045
aF0.7645434509716832
aF0.8005573967310347
aF0.8395019006661034
aF0.8751055273275103
aF0.9129057539883327
aF0.9246392093815636
aF0.9349170215893702
aF0.9497516470311094
aF0.9505672960108491
aF0.9624715158902634
aF0.9655539850819913
aF0.9701179945625119
aF0.9547222355290934
aF0.9259632344413493
aa(lp35
F0.04531740152447309
aF0.04843474888228316
aF0.052768928262358385
aF0.07930255613957797
aF0.05717776881942105
aF0.0721501055337408
aF0.05420038830633951
aF0.06283640063269567
aF0.07565780009585114
aF0.09644076680365214
aF0.13218269660085305
aF0.17611272544135131
aF0.22334117615281043
aF0.277081905016271
aF0.3432871766740545
aF0.3582783025396181
aF0.40279290438644033
aF0.46684342663404915
aF0.5879608754566971
aF0.6123205244967999
aF0.6918744474110765
aF0.7276204968515088
aF0.7909675084611271
aF0.8046629731575045
aF0.8395357764460529
aF0.8805153072788207
aF0.911230792278419
aF0.9375754985579773
aF0.9405895547953892
aF0.9251328515248101
aF0.9505568956273164
aF0.9605612177801358
aF0.9936620629998775
aF0.9599659350720474
aF0.9596600588273536
aF0.9531308965702019
aa(lp36
F0.05451709217032086
aF0.056715863691564894
aF0.0544262824241616
aF0.043273088068391696
aF0.0445770427366545
aF0.01895315205720218
aF0.047571451164726254
aF0.06136562378420095
aF0.07895618230139957
aF0.10069305363909362
aF0.0824790688266564
aF0.17659415768172285
aF0.18240492837651967
aF0.2653665121190501
aF0.3130951940139205
aF0.33238377816604797
aF0.4075436122475374
aF0.49167104409721546
aF0.6089943662358351
aF0.6216174196078215
aF0.6565335040508776
aF0.7261408115647999
aF0.7660420620471667
aF0.7973616819770685
aF0.8381516417480109
aF0.8792438001596278
aF0.9165053036049433
aF0.9609660256994096
aF0.9407389917932583
aF0.9425956573590156
aF0.9490170214211927
aF0.9613803844380625
aF0.968212484907697
aF0.988743551010244
aF0.9667920445298785
aF0.9598732952031666
aa(lp37
F0.07103184993906503
aF0.054857460756754385
aF0.07615386782687938
aF0.04895338286608219
aF0.03694129501657597
aF0.0
aF0.049945239186000565
aF0.06281168323355349
aF0.0778858458525896
aF0.09657981192786706
aF0.12890638406670396
aF0.1621752787837246
aF0.2215019871198696
aF0.26331877034971257
aF0.3246297383709717
aF0.38758227968230097
aF0.41503649821438765
aF0.46043815734225696
aF0.5946538500314502
aF0.6226817888591932
aF0.6925847201281624
aF0.7210577677292466
aF0.7622638417182214
aF0.7975439057274537
aF0.8202965592615371
aF0.8845071878914857
aF0.940671577339881
aF0.9349334522435111
aF0.9393100929166139
aF0.9433568091443936
aF0.9494941631074654
aF0.9564097281398672
aF0.960891864269695
aF0.9626236960827002
aF0.9382352180759351
aF0.9396025535770314
aa(lp38
F0.033704830153115636
aF0.042770318599211744
aF0.05374566234224864
aF0.048917393001844583
aF0.03771642303138496
aF0.05317407189083792
aF0.02489222945789096
aF0.056035708211432236
aF0.06835390542405083
aF0.10135790653859603
aF0.13339852940881047
aF0.17389567414028506
aF0.21748697812940093
aF0.2647220678542576
aF0.3170287601362608
aF0.3643593775537693
aF0.38178751800262284
aF0.4537095562693201
aF0.5950586315455535
aF0.6377567931909959
aF0.6792179826435691
aF0.7234553784844697
aF0.7606940540982721
aF0.7960076307383808
aF0.8357316592341257
aF0.8776980418985328
aF0.9104391877629603
aF0.9340900480923273
aF0.9347621650735245
aF0.9214045605831724
aF0.9452596528893374
aF0.9551441276176625
aF0.9600510256755536
aF0.9640589712910478
aF0.9509655457999933
aF0.9446288696600367
aaa(lp39
(lp40
F0.9433293041430395
aF0.9223886080956686
aF0.9548163742882771
aF0.9558910081847938
aF0.9570109423954862
aF0.9546936514503879
aF0.9553743814623876
aF0.9471161270249142
aF0.947578418076394
aF0.8697307438712436
aF0.9149188863609108
aF0.8952976437691398
aF0.8705122027550918
aF0.8482559696868595
aF0.8072496028948355
aF0.7883588407326212
aF0.7119527506240162
aF0.6453030608544259
aF0.5514919021523123
aF0.529449745510508
aF0.5079735243581577
aF0.4758525022051011
aF0.4449439177687383
aF0.41982804127620127
aF0.40730265532012144
aF0.4066007950921713
aF0.33503058254570384
aF0.2846295137334823
aF0.22955560262592262
aF0.1748914234550517
aF0.12425786753232737
aF0.06083876581943043
aF0.07310237881193152
aF0.03626298591758621
aF0.04857976017222072
aF0.048919735153579426
aa(lp41
F0.9587822067602696
aF0.9494388839870521
aF0.9506358857930501
aF0.957348704246182
aF0.9591591725403665
aF0.9579107180476045
aF0.9307853576898748
aF0.9553691706907218
aF0.946353628122535
aF0.9583294759024277
aF0.9113154880575857
aF0.8927287090440709
aF0.8691653969548797
aF0.8409390934624197
aF0.8087055513178871
aF0.7663672823617921
aF0.7179386617834179
aF0.6405339963084392
aF0.5543060667108696
aF0.5290459752757092
aF0.5113911313513352
aF0.47013193556043703
aF0.44496165754637845
aF0.423984627131194
aF0.4126033027726251
aF0.3766086457863383
aF0.3396217696454098
aF0.2925033045375668
aF0.2383465079214103
aF0.17721630180074177
aF0.12948673927187804
aF0.0956461893851443
aF0.07800655475505042
aF0.07918668806717676
aF0.054010487420052364
aF0.04515138195903783
aa(lp42
F0.9555037414146299
aF0.9551173486574535
aF0.9556491637739648
aF0.9543395250214027
aF0.9600975796916068
aF0.9613333862096529
aF0.9611819401195972
aF0.9790311894604575
aF0.9509629806279779
aF0.9336943234247815
aF0.916244987513505
aF0.8897722016206976
aF0.8649126630951808
aF0.8370927013493326
aF0.8104385097078937
aF0.7644295304937968
aF0.7185834067238009
aF0.7055789261978449
aF0.5574677748069998
aF0.5273982716674005
aF0.49322955443347755
aF0.4699419661701481
aF0.44200484295850945
aF0.4270065033761646
aF0.3982296065966057
aF0.3779360449427845
aF0.33718338039028356
aF0.3031690154312981
aF0.2856146505801865
aF0.18021567749023315
aF0.13915875187291993
aF0.10045901888978502
aF0.08900267320213173
aF0.08939799315981665
aF0.07452920135151896
aF0.07214324411560567
aa(lp43
F0.9539883447182338
aF0.9591334758782951
aF0.9578839791096069
aF0.9631311030266355
aF0.9654856181660868
aF0.96444652559441
aF0.9645238835466171
aF0.9564144203219325
aF0.9460015497389708
aF0.9311775068938225
aF0.9070323357199991
aF0.8843566756159005
aF0.8579561971900406
aF0.8268886167955575
aF0.8018354463365406
aF0.7586257479879688
aF0.7276059787148826
aF0.6602715541307046
aF0.5590396757075048
aF0.5251659819531107
aF0.4900455765433605
aF0.4645824499939177
aF0.44334676240683596
aF0.3922410229160664
aF0.3990752704903156
aF0.40212378029328005
aF0.32319841459962634
aF0.3215102915545913
aF0.29338840332570976
aF0.2752690964635915
aF0.19678269723051614
aF0.16604713587715988
aF0.13942618382092065
aF0.06931866624304318
aF0.08420198475863713
aF0.10392007270060204
aa(lp44
F0.9406396114139286
aF0.9593325850135682
aF0.9904151838033499
aF0.9637629890383367
aF0.9608867144949681
aF1.0
aF0.9607519719348115
aF0.9523733938468454
aF0.9648091309317058
aF0.9250671074192057
aF0.9030350989708075
aF0.8667613172759592
aF0.8578607693492456
aF0.8195487404483255
aF0.7529324416837776
aF0.7592658373102948
aF0.7303334188614561
aF0.7195873306687488
aF0.5620722294953565
aF0.5247757948459597
aF0.48765389034679246
aF0.4600411730281304
aF0.43086526233171885
aF0.4141431467704035
aF0.4035492670409915
aF0.37744974074514287
aF0.36916153402531643
aF0.3433973241296608
aF0.3188486641034931
aF0.30772681929555484
aF0.2381335920435987
aF0.2335285312154236
aF0.19284761874456172
aF0.17576981323802202
aF0.13019869774815787
aF0.11579579545842457
aa(lp45
F0.9193413970667181
aF0.9259612918160236
aF0.9499047690546059
aF0.958182079559986
aF0.9238480873351105
aF0.9516651850622005
aF0.9523083125897012
aF0.9468080558709472
aF0.9288875579503758
aF0.913982630166053
aF0.8928212339290038
aF0.8991921615786702
aF0.8481118378196683
aF0.818288360782306
aF0.7852141944215952
aF0.7506164233872799
aF0.7207826965331369
aF0.7336272979477257
aF0.5135552027522086
aF0.5144595391600415
aF0.48103853666931223
aF0.4538650672827156
aF0.4289101462782821
aF0.3889790964508563
aF0.42934352589278074
aF0.42511550152800076
aF0.3989117193371375
aF0.3622657878075253
aF0.3384505366587222
aF0.30944458772566
aF0.27870177654328887
aF0.2624436492549989
aF0.25371297853121283
aF0.23020761234197984
aF0.196348249557646
aF0.05842424625326585
aa(lp46
F0.9270294170545973
aF0.9419000565160844
aF0.9337071613118546
aF0.9290920542387017
aF0.9363211999870537
aF0.9400716551520718
aF0.942521613978657
aF0.9377721781717607
aF0.918236667494094
aF0.899898849869238
aF0.8782564068295028
aF0.8608996369082479
aF0.8421914556191693
aF0.8172340017099153
aF0.8165819263730283
aF0.7492751159065462
aF0.7045779232641572
aF0.618192011039707
aF0.5551844690159453
aF0.5125667471563687
aF0.47855937662533643
aF0.4515875833859609
aF0.42868351658958415
aF0.4212006830460795
aF0.4141131610412429
aF0.40692558218899005
aF0.3935450098363691
aF0.3785607522163296
aF0.36018357384354655
aF0.32960250931018664
aF0.30549503087871366
aF0.3039268782365448
aF0.29590768126062045
aF0.3352179975645142
aF0.25606259722475305
aF0.26150609519840806
aa(lp47
F0.9267191145724295
aF0.9215874156155163
aF0.9239410116960994
aF0.9240224023324567
aF0.92635042198912
aF0.9338026226058233
aF0.9557423402027957
aF0.9247276894966983
aF0.9341899137369439
aF0.8634957733054762
aF0.8456479058431416
aF0.8491564663796535
aF0.8291918023253513
aF0.8126857470988443
aF0.7833785735929107
aF0.7451020759969181
aF0.6970442345912767
aF0.6180465861545894
aF0.5535516324432426
aF0.5234336228457341
aF0.48048153136607713
aF0.4233825594388409
aF0.44063179588249507
aF0.42440958186389055
aF0.4171864449733483
aF0.40458168730213306
aF0.3720756674002336
aF0.4085113642565856
aF0.3967886885880804
aF0.36156386966661364
aF0.3644781337499879
aF0.33465158248197874
aF0.32334192157832947
aF0.32174846063299656
aF0.31131655568929445
aF0.3034899125675758
aa(lp48
F0.9055769853224991
aF0.9066884136071366
aF0.908752913700925
aF0.919463803692795
aF0.9183160659530042
aF0.9452882661075961
aF0.9067896907663139
aF0.9106780797459048
aF0.8931357578232437
aF0.8756185536473365
aF0.8631369688057785
aF0.8336370917857417
aF0.8162961292529737
aF0.7944406203634964
aF0.7671737893959585
aF0.7392464081135409
aF0.6989508010064184
aF0.6983751195168283
aF0.5862722708972773
aF0.5152235317153506
aF0.4789736947989192
aF0.4570804761609439
aF0.49346210583115896
aF0.42925022047269557
aF0.418808113236524
aF0.40896130797123237
aF0.40466656536072
aF0.39747827593085844
aF0.38153538924755975
aF0.3842108288589279
aF0.37606042180134813
aF0.35362699396534764
aF0.3560301467614578
aF0.3491815959456488
aF0.3464283201650642
aF0.3420566880828145
aa(lp49
F0.8999421832059044
aF0.8722544857189007
aF0.8929173393648936
aF0.9091896693348994
aF0.9033005449134713
aF0.9071981356436197
aF0.9066919105665286
aF0.9026641279864783
aF0.8952778750656502
aF0.8650354739985963
aF0.8440187626801999
aF0.8225951138869069
aF0.799469129092734
aF0.7791125227711886
aF0.7571731595981591
aF0.7337021688397128
aF0.7017745020650911
aF0.6507632837960763
aF0.5891626961316221
aF0.5429225238346116
aF0.4786670763811642
aF0.42967228924476447
aF0.4329714166982399
aF0.4325154199371632
aF0.42243077726767003
aF0.4128219015612246
aF0.4193645988676385
aF0.4141363827836862
aF0.4004334099619709
aF0.4104176209189662
aF0.38708387085402607
aF0.41733316240377816
aF0.38762094039869605
aF0.380574281982252
aF0.3755262317345291
aF0.37541190695820054
aa(lp50
F0.8952700867299598
aF0.9010972865164398
aF0.8823810178810212
aF0.839474393225238
aF0.8826112702253109
aF0.9017831364297602
aF0.8897245814914262
aF0.8793706141281787
aF0.8671086469230981
aF0.8494454815961405
aF0.830067198960824
aF0.8040558131813998
aF0.7867468943399357
aF0.7499704177070068
aF0.7517680435060424
aF0.7318312427990877
aF0.7156944150162771
aF0.6405325101794183
aF0.5767612778769561
aF0.5052988059431793
aF0.4815002751078766
aF0.4542005412421251
aF0.4412218999913175
aF0.42874325253905304
aF0.43101037479773363
aF0.4268994394054908
aF0.42060832304459717
aF0.4701808347808886
aF0.41965362868454364
aF0.44443390960833734
aF0.4182252320523543
aF0.43773695732420015
aF0.4092981586448956
aF0.3980080992556186
aF0.4239131550578255
aF0.3903190047825518
aa(lp51
F0.9113047010559684
aF0.8808556993808184
aF0.8808070282378472
aF0.8765283971224483
aF0.85823646263723
aF0.8602089189682071
aF0.859055447463506
aF0.8642725538209982
aF0.8488141018096792
aF0.8290602001142352
aF0.8132230250058607
aF0.8174238497206427
aF0.774425867178374
aF0.7554447520410359
aF0.742879518910106
aF0.7290200929994227
aF0.7174910082549639
aF0.640305924852706
aF0.5323783806421681
aF0.5133699812076241
aF0.48939107351499084
aF0.4723515071513134
aF0.4573177005426516
aF0.447382234481226
aF0.4397063173873214
aF0.4379964293105396
aF0.44305205992417324
aF0.4452417520479359
aF0.44490245254058713
aF0.43853219360242135
aF0.4417093711203886
aF0.43246350698214314
aF0.42521734258479876
aF0.41803566876672
aF0.4125339881629923
aF0.40694102789932995
aa(lp52
F0.862134399073867
aF0.8606521485175486
aF0.8462607531138283
aF0.8388730684341739
aF0.8337990862183994
aF0.8274875065204155
aF0.8254014425073537
aF0.8228658994961768
aF0.8212462372667088
aF0.8114095441439084
aF0.7889322991830375
aF0.7746741792260933
aF0.7603188748862385
aF0.748937916353931
aF0.739384545352978
aF0.7468471668138092
aF0.699290580926859
aF0.6920283156688937
aF0.5491815124171929
aF0.5288598687112752
aF0.5046117902610038
aF0.4837509850632611
aF0.4691102375435895
aF0.4629920074458614
aF0.4498318876483179
aF0.4322007560893813
aF0.4515803457355938
aF0.44756621739564423
aF0.4550735543737685
aF0.4714245124051499
aF0.44933956048137774
aF0.4405203849975718
aF0.43645256511982256
aF0.430919019186039
aF0.4073136259092119
aF0.42440268025626704
aa(lp53
F0.8191158287120842
aF0.8175687353810556
aF0.8113059331379932
aF0.7945881788128103
aF0.8018594044021284
aF0.798536167670902
aF0.7848059848997054
aF0.7906036985383845
aF0.7917165501535378
aF0.815756234302534
aF0.7699423330018851
aF0.7272165248935589
aF0.7473176896431742
aF0.739275980062389
aF0.7343023652356339
aF0.7193434069995918
aF0.687823024475541
aF0.6609712214240974
aF0.5891554331996988
aF0.5293101595881472
aF0.528403785037555
aF0.49662928147451096
aF0.4851623282985836
aF0.4797773493216684
aF0.4769226239055227
aF0.47091683851583116
aF0.4671470355366972
aF0.4669451224235745
aF0.46644700600093203
aF0.4589631315515516
aF0.43091713015177546
aF0.4481618984362748
aF0.4494603910766716
aF0.44519184238444315
aF0.45216798193023694
aF0.43849961375941354
aa(lp54
F0.7840695982872165
aF0.7788987828257216
aF0.7733737662886805
aF0.7727401427481403
aF0.772265436885457
aF0.7720819149777576
aF0.7690493878874934
aF0.7655939066551548
aF0.7600371962616769
aF0.7600749202366268
aF0.7489293555407398
aF0.7331804921708341
aF0.7069867027478296
aF0.7269225515172878
aF0.7204427505477345
aF0.7336199825112415
aF0.6938374934609813
aF0.7265236237501904
aF0.5253080438344745
aF0.5045349373149994
aF0.5093490721071571
aF0.49901179015255975
aF0.4971115685122041
aF0.49505685322228077
aF0.4925112749178819
aF0.49451163182288377
aF0.48899259526211675
aF0.481980936886462
aF0.47423795233353955
aF0.4650244326213398
aF0.4597195639540597
aF0.4598651827146911
aF0.4595943680530286
aF0.46338530255364385
aF0.46136984261362035
aF0.4422357855857743
aa(lp55
F0.7635498451368696
aF0.7403805754887575
aF0.7375427419733628
aF0.7376638347461183
aF0.7492441686157906
aF0.7487445693163033
aF0.7506110230757751
aF0.7396569808539467
aF0.7371398793203943
aF0.7227564105848079
aF0.724455047178581
aF0.7179861211382327
aF0.7215686263137681
aF0.720243183005337
aF0.7238990906079247
aF0.7134738322393691
aF0.6833450478773355
aF0.6248989080762106
aF0.5337791917654114
aF0.5511388458422333
aF0.5190514310314766
aF0.512121047319877
aF0.5048633430117305
aF0.5082022688373978
aF0.504349567502091
aF0.511377680214974
aF0.5115976661257092
aF0.5058377218173141
aF0.49125510583287807
aF0.4602948826661074
aF0.4788928440911564
aF0.4765411524325971
aF0.4764178446029475
aF0.48229226509347617
aF0.48009430246263024
aF0.47814646440411507
aa(lp56
F0.7094120015658968
aF0.6966873358878587
aF0.7004764515633354
aF0.6984239980840986
aF0.7444777024528539
aF0.787506575272879
aF0.720137424644228
aF0.7180502281122481
aF0.6927394912360714
aF0.712790948928069
aF0.7033122373395825
aF0.6929277142060665
aF0.7275388467657954
aF0.6990861542828326
aF0.7431263774883334
aF0.7312457296553388
aF0.6751157952023846
aF0.6287187169477143
aF0.5322145198447195
aF0.5384883425294786
aF0.5243503918577073
aF0.5190459611231112
aF0.5296410143683864
aF0.47655107863909885
aF0.5304540625934661
aF0.5281853137043925
aF0.5321667109029059
aF0.5495489118463032
aF0.5167420688002776
aF0.5030160124223819
aF0.5054451331240349
aF0.499806965521333
aF0.49290827000164134
aF0.5062240636185447
aF0.5063703920728674
aF0.5005447065646519
aa(lp57
F0.6425530013951354
aF0.7041442314850598
aF0.6274997143340931
aF0.6345704475195256
aF0.6550596179210065
aF0.701254553159414
aF0.6656944917665473
aF0.6420383705881716
aF0.6336173267999482
aF0.6236395976832695
aF0.6290454781109297
aF0.6350486219010564
aF0.6733482106669065
aF0.6407889749330699
aF0.6387756859513781
aF0.6400610082960422
aF0.6553747291534229
aF0.7209953871235879
aF0.6092928076551568
aF0.5437097374582536
aF0.5038236556405566
aF0.5726319154889626
aF0.5785058382460267
aF0.5779528501679332
aF0.565608427586294
aF0.5821871495972807
aF0.5409441356847732
aF0.5319722202514695
aF0.5284735504950241
aF0.49966614952988075
aF0.5433174658154298
aF0.4726625608538748
aF0.5549224827616143
aF0.5757237095345485
aF0.5797964326007464
aF0.5836777648765726
aa(lp58
F0.5437113305026012
aF0.4561130543262847
aF0.5627110771376064
aF0.5680768981343286
aF0.5207152466297854
aF0.5846978686902479
aF0.5884443189585212
aF0.5747971144458264
aF0.5306431617090467
aF0.5604046602709459
aF0.5132112414804508
aF0.5731242824509727
aF0.5551189556873565
aF0.5780400268451006
aF0.5201850475425736
aF0.5530076776488986
aF0.601866750399655
aF0.6167566728601278
aF0.6271322063916069
aF0.687506155219004
aF0.6266448596313402
aF0.6579516478956992
aF0.6423720218396674
aF0.6627299010795675
aF0.6487982049817868
aF0.6768277513376405
aF0.6398275298346259
aF0.6737668109556819
aF0.6669940642886447
aF0.7197472532019195
aF0.622439975897139
aF0.6175328424219168
aF0.643431940159833
aF0.6403384493783791
aF0.6948649545904937
aF0.6502870485646548
aa(lp59
F0.48873486209068534
aF0.49707867754930773
aF0.500322387116227
aF0.5153838097720967
aF0.5295248344159109
aF0.5244769304097064
aF0.48826265042393
aF0.5180406179173908
aF0.5222193277583279
aF0.5206869851417496
aF0.4986084965819091
aF0.5217040031650647
aF0.5484028425524221
aF0.5197403762520105
aF0.5263976185521236
aF0.5362638187322047
aF0.5581798676822705
aF0.5519556622222206
aF0.6371334603609436
aF0.668720263120456
aF0.6858178958455499
aF0.6826174113033193
aF0.6877962393112057
aF0.7256030035853686
aF0.6877768814562985
aF0.72137596242855
aF0.693649628883679
aF0.7001287205064083
aF0.6988911932260234
aF0.7042337716797552
aF0.6988873923305515
aF0.71996188402932
aF0.6872605365632728
aF0.6956000035600356
aF0.7041748441642209
aF0.7023959566017917
aa(lp60
F0.46860109582387294
aF0.4805438002614128
aF0.4819117915417211
aF0.49075975079882045
aF0.4952849483118505
aF0.4928749484376282
aF0.491670589806991
aF0.4871186690989318
aF0.45996499297279847
aF0.4944849394717096
aF0.4995286708554631
aF0.49214856746234753
aF0.49128613077079675
aF0.4897106329143441
aF0.5075982048698197
aF0.5115773773141616
aF0.5246952957547569
aF0.5946531205753675
aF0.6490064601496437
aF0.7214212237608494
aF0.7082454812054843
aF0.7173150519524655
aF0.7185119776944583
aF0.7203794136268544
aF0.7245786854984778
aF0.7188476019927422
aF0.7180217817371221
aF0.6979250807910111
aF0.7572465795022554
aF0.7278479822380297
aF0.7419066770694415
aF0.733918264792427
aF0.7351462416838087
aF0.7334483266384969
aF0.7467819011868403
aF0.7603519482811715
aa(lp61
F0.45317774323652155
aF0.49028731321299823
aF0.4666101795300208
aF0.4703516087921689
aF0.46728489334733375
aF0.470804450330164
aF0.4711439745142046
aF0.47433034097885224
aF0.4653091525929287
aF0.4662811980581225
aF0.4740178127136378
aF0.44143701334811275
aF0.4420910546306584
aF0.4767451598047851
aF0.514339916232955
aF0.49274261576471895
aF0.5402967545812706
aF0.6051027097529219
aF0.713474625995812
aF0.7126268507624619
aF0.7317079760196864
aF0.7343148890624361
aF0.7391655433927314
aF0.7382014089378193
aF0.7417969929159322
aF0.7440692863984583
aF0.739443843053837
aF0.726647471893405
aF0.7747820356924673
aF0.7563770246688427
aF0.7613322308724655
aF0.7664080116565296
aF0.7183955615463625
aF0.7806139634319252
aF0.7950509566490679
aF0.7980566058455709
aa(lp62
F0.4445744651290607
aF0.46490434976898826
aF0.4519996676085552
aF0.4546458365360224
aF0.4562604923377603
aF0.4507727194096358
aF0.4478193140766855
aF0.44743971524643134
aF0.4394542502815973
aF0.4497225867218966
aF0.4451074825048686
aF0.44245866325011124
aF0.4267681447057171
aF0.493151701656841
aF0.4524354191095673
aF0.4901625503075067
aF0.5166855274311093
aF0.6057348354704426
aF0.7159262018430472
aF0.7417525480947443
aF0.7714586061312229
aF0.7433701639336494
aF0.7402551512296601
aF0.7528733578977521
aF0.7689844065077591
aF0.768401683305409
aF0.771905915848135
aF0.7683206141793572
aF0.7829296099292439
aF0.795848914106839
aF0.8012731574811847
aF0.8304390740854953
aF0.8091895274914026
aF0.8198286737860242
aF0.8825079141509565
aF0.8342557155491163
aa(lp63
F0.42717419401012896
aF0.38928283044209394
aF0.4246572424590062
aF0.4357435555544091
aF0.46780202566427403
aF0.4362218220734227
aF0.4108842690497116
aF0.4186075137033653
aF0.3904615451425653
aF0.42131260195229503
aF0.4230428272915397
aF0.43989796967149863
aF0.44542621761140794
aF0.45716075187656063
aF0.4890330791225304
aF0.4932967575475369
aF0.5308470426398552
aF0.5824511978295074
aF0.6577134593087736
aF0.6977409141357679
aF0.7330541051188854
aF0.7461368976867292
aF0.751340880729305
aF0.7705102639284238
aF0.7749531405379632
aF0.7883118235271857
aF0.794108806418532
aF0.8094025263190966
aF0.8293983265296089
aF0.8244040370667575
aF0.8379433409376336
aF0.8391157883157211
aF0.8438180250137873
aF0.8506437026698004
aF0.8502349672519257
aF0.8533688171642009
aa(lp64
F0.3943601883811818
aF0.4447032413547472
aF0.42575854024039866
aF0.40644556331774373
aF0.4041455658375345
aF0.37276584709356825
aF0.39710850629657374
aF0.3965066614648886
aF0.3993680873358176
aF0.3792731022104562
aF0.41699256144055064
aF0.4496820822332619
aF0.4678249948110832
aF0.46040232276331033
aF0.47116789464293546
aF0.47703013513724685
aF0.5097549672127742
aF0.580846591627122
aF0.6554077630776427
aF0.6908966628219265
aF0.7235860616741748
aF0.749136103253197
aF0.7617566557378451
aF0.7709866648798586
aF0.7815349627244764
aF0.7997462073657114
aF0.8480448778587545
aF0.8264433052401207
aF0.84415153461208
aF0.8524766565314342
aF0.8550478461490808
aF0.8604643863554049
aF0.8655604586161655
aF0.8721273812997238
aF0.8726903546706107
aF0.8379878969270032
aa(lp65
F0.3729858414631449
aF0.368653571079014
aF0.3749735510031648
aF0.3619222101845356
aF0.3616090143351837
aF0.395072734805194
aF0.3994785534590049
aF0.3784903870997954
aF0.3935271662212599
aF0.3929033355523979
aF0.40820753491150547
aF0.4293660125559804
aF0.44296410379951684
aF0.45124993172578964
aF0.45717441622019145
aF0.4827785704538503
aF0.4999390658333678
aF0.57559761184752
aF0.6440246689770489
aF0.688043231285801
aF0.7273222702971284
aF0.7542391191194305
aF0.7705677201618367
aF0.7820118716448646
aF0.7996991717460421
aF0.8225216514813657
aF0.8414327743916563
aF0.8599110503383848
aF0.8852712049590796
aF0.8694317233518271
aF0.8777191003452037
aF0.8808068082365598
aF0.881107358479119
aF0.8925173883702217
aF0.9168294017274946
aF0.9068193583482348
aa(lp66
F0.33751351251768863
aF0.34019388030564673
aF0.3096406766399385
aF0.3445308990116106
aF0.3275445380685376
aF0.3440118956937139
aF0.34363349393441706
aF0.3697455375679712
aF0.36418729239851805
aF0.3826643101245359
aF0.4021671401072893
aF0.41549879924206046
aF0.4319696732032155
aF0.4303612911652451
aF0.446917564904352
aF0.47688841416527855
aF0.5316569896935575
aF0.5651726279659073
aF0.6267961123943295
aF0.6909987014984172
aF0.7524976682136436
aF0.7667394001984494
aF0.7807539850465112
aF0.7987492452796242
aF0.7917742887382467
aF0.8500498966185713
aF0.8667971215573561
aF0.8792888337875873
aF0.8898016507353211
aF0.8901120331004725
aF0.9221950879028082
aF0.892862568371544
aF0.8905352745037299
aF0.8917357514711635
aF0.9135424505304273
aF0.9347716701118264
aa(lp67
F0.2523857413191959
aF0.24085921848395708
aF0.2704963056962653
aF0.2570185098780078
aF0.28465361565282654
aF0.30547542602961775
aF0.3346950710161501
aF0.38882499896680955
aF0.35738943095422965
aF0.36209112498658685
aF0.3862040740769554
aF0.40659348540145673
aF0.41769859158068695
aF0.4264761845336074
aF0.42080595268230137
aF0.50209334185612
aF0.5039426506791389
aF0.5164527384641191
aF0.6295261482765855
aF0.7105833185691043
aF0.749474492914933
aF0.7795326141304738
aF0.7918268260856278
aF0.8155941749050033
aF0.8358292963134947
aF0.8591202593402784
aF0.8847688417993912
aF0.9279596606812293
aF0.9023583257069031
aF0.905145322263656
aF0.8767557773155232
aF0.9073219054935951
aF0.9082521705984213
aF0.908685969179988
aF0.9230590340540431
aF0.9307068654423191
aa(lp68
F0.16986063054889636
aF0.1731532822839246
aF0.17980101376507376
aF0.16238314654875097
aF0.2181614832425169
aF0.3053966256595814
aF0.3585431316544722
aF0.3135914152087805
aF0.33079107095810917
aF0.35136438216825844
aF0.37641057206113776
aF0.3947411880112445
aF0.4124460212755494
aF0.42292560782487804
aF0.44012987641581364
aF0.47948296930127493
aF0.5087998943067352
aF0.5245499458879946
aF0.6925052048551097
aF0.7127230970586487
aF0.7540696711606993
aF0.7836240292196642
aF0.7799571069848945
aF0.8294974369885492
aF0.8583302883189052
aF0.8782629496843395
aF0.8985003150597893
aF0.9107478588711451
aF0.9176043183618628
aF0.9267929219986115
aF0.915966862670707
aF0.9133998719288065
aF0.9407587926639153
aF0.9228683931813229
aF0.934903058006932
aF0.9433895942073276
aa(lp69
F0.09100861924834842
aF0.10879280436072503
aF0.07070651610668216
aF0.1536883303836032
aF0.05960273483894242
aF0.21707319220878796
aF0.2513148433173053
aF0.2371011336875682
aF0.29573463283724055
aF0.340191848970445
aF0.36074615122748566
aF0.3875777876519983
aF0.4085806846469638
aF0.41581399666841806
aF0.46873674811764154
aF0.48152528784344223
aF0.5115636876948573
aF0.585391769706891
aF0.6771244742403817
aF0.7171470990217118
aF0.8235650102799628
aF0.7797160865667313
aF0.8202606123874507
aF0.8556778334479661
aF0.8771115036958976
aF0.8973702873943882
aF0.9059570583646755
aF0.9159250949922719
aF0.9238796359348994
aF0.9279363574850388
aF0.930228172680217
aF0.927670114615764
aF0.9239147908664033
aF0.939731242996848
aF0.9528906725018569
aF0.9547696354562004
aa(lp70
F0.05718048862878043
aF0.06927381186550018
aF0.056861376146615406
aF0.07520248187271016
aF0.1034499955952109
aF0.12671024378446807
aF0.1213848392831068
aF0.21360843567584087
aF0.2668038358080866
aF0.30520299533043255
aF0.34153835648291314
aF0.37515144979842124
aF0.3933257865341316
aF0.41219166331666973
aF0.4373454617192149
aF0.4826133247863998
aF0.5267065898365567
aF0.5873067749254465
aF0.6507248819585313
aF0.7175302710632177
aF0.7598190675608737
aF0.7896485171307356
aF0.8213878471330682
aF0.8596917627286498
aF0.9366135539694375
aF0.907644147443193
aF0.9135547448642952
aF0.9226633308534095
aF0.9301975442824042
aF0.9372171788259339
aF0.9411196661597936
aF0.9505054493931788
aF0.926408856931692
aF0.9513775837791605
aF0.9848832149785676
aF0.9570247660586523
aa(lp71
F0.052034142126834076
aF0.06092680939203071
aF0.0534198674449906
aF0.07121194255159363
aF0.030162844612200153
aF0.09283148041717586
aF0.13763437873506656
aF0.1705156359331457
aF0.22908577698216095
aF0.27034923119866855
aF0.31183137555153756
aF0.35755662308651165
aF0.38174840434501195
aF0.40969576080695697
aF0.43885330915874904
aF0.47567202771726963
aF0.5231909762264558
aF0.5674717519556391
aF0.649583998245457
aF0.6953114573720685
aF0.7579633278561765
aF0.7940979324830919
aF0.8020063107732938
aF0.8689174428589522
aF0.8945504147613805
aF0.9143683669309116
aF0.9218441698038187
aF0.9308685390534173
aF0.9407975231039521
aF0.9503702779196944
aF0.9527627020177741
aF0.9516653811447787
aF0.9550782631638062
aF0.9608047849939244
aF0.9624709607166856
aF0.9632257170445121
aa(lp72
F0.03369142152484051
aF0.04755462026519941
aF0.04154296625813434
aF0.0
aF0.0
aF0.05105617573493526
aF0.059585661109604254
aF0.14570595791945987
aF0.19775103169041053
aF0.25547542567032144
aF0.2335761850576457
aF0.33249391830211256
aF0.363272866607019
aF0.410974558629096
aF0.4429247499630112
aF0.4772816948420897
aF0.5225729005695542
aF0.5827357510587938
aF0.6692696344499687
aF0.7179344562567956
aF0.7597349019134382
aF0.8260571803558961
aF0.833751044483619
aF0.8639560520126591
aF0.9009356887993221
aF0.917989441033805
aF0.9316153354758682
aF0.9390160946488609
aF0.9473535740631273
aF0.9575270891144774
aF0.9580919771710529
aF0.9630407752971967
aF0.965839851514965
aF0.970614084015588
aF0.9695336395537827
aF0.9421986816421665
aa(lp73
F0.02802309981023084
aF0.03155070025397113
aF0.0348763885032015
aF0.030094243183508552
aF0.01956566057019232
aF0.0
aF0.07011663748278944
aF0.11956423604520743
aF0.18495371524323087
aF0.22246287783178156
aF0.27401209632956736
aF0.33209392242266866
aF0.39902772216088345
aF0.4118810601926198
aF0.4437459481463273
aF0.47827074217395316
aF0.5210095374039613
aF0.555216499102713
aF0.650492420967007
aF0.7143259532360658
aF0.7691450705845863
aF0.8400396445936275
aF0.8128388921942301
aF0.8618170671711057
aF0.8981534634806362
aF0.9448022948220074
aF0.9377867765623665
aF0.9458839379510873
aF0.9563379715528114
aF0.9582156077224601
aF0.9633761999666457
aF0.9675350657575202
aF0.9738395266765413
aF1.0
aF0.9770384402502336
aF0.9797358541424029
aa(lp74
F0.012967726621505263
aF0.014488877783014546
aF0.029050651107913817
aF0.022677868476742507
aF0.019713624575324485
aF0.034928147485701534
aF0.032210194127085603
aF0.11892459042547567
aF0.15344651917694638
aF0.20815852880771915
aF0.2753963271634011
aF0.33110743044903806
aF0.3805408406526332
aF0.4112050270267506
aF0.44550402269165995
aF0.4740729839878603
aF0.5424722006001776
aF0.5878958543092382
aF0.6587691406181956
aF0.7143835969347462
aF0.7663767799182222
aF0.799085866119101
aF0.808229332778249
aF0.8767025165898726
aF0.8997363060968069
aF0.919156656498239
aF0.9358444465166044
aF0.9684000817921201
aF0.9511477608655641
aF0.9586457435797616
aF0.9673867094692737
aF0.9721005860384305
aF0.9765054592395809
aF0.9754145082600526
aF0.9786740355558342
aF1.0
aa(lp75
F0.0001320241703404619
aF0.0
aF0.01644427848476179
aF0.0024519201755774447
aF0.02519666819131249
aF0.02407822720778359
aF0.0742864625122247
aF0.04222460366209711
aF0.14276764433825428
aF0.19722796396971048
aF0.21251478471290886
aF0.384393844072647
aF0.3298228093626443
aF0.4002293996108197
aF0.43441986345637096
aF0.46689427753774104
aF0.5235292102443019
aF0.5939739219041191
aF0.660349896246025
aF0.7156017486046216
aF0.7620837691228569
aF0.794958197949911
aF0.8266636824785039
aF0.8502562224468692
aF0.8930069172835229
aF0.9190263584389673
aF0.9398706178208651
aF0.9121728868084751
aF0.9497051878605918
aF0.9581198429976949
aF0.9923251471990476
aF0.9689436748331981
aF0.9745352689424414
aF0.9781518756614582
aF0.9840431343305649
aF0.9874900237585611
aaa(lp76
(lp77
F0.9629830355934658
aF0.9612023823157065
aF0.9286708920237015
aF0.9703097083036752
aF0.9588899449288009
aF0.9484176850417354
aF0.9380961766669688
aF0.9162910773497847
aF0.934970528948367
aF0.9235946924983951
aF0.9158912734827189
aF0.8725992321060663
aF0.8455088355367495
aF0.821423378223668
aF0.7838601876795299
aF0.7157583775301515
aF0.6395840164817987
aF0.5802634092205399
aF0.48152835634022495
aF0.40956181853480533
aF0.36168873851490985
aF0.324736631439686
aF0.3053130368634579
aF0.24170463352649074
aF0.193996589845506
aF0.15518746404094214
aF0.12238129099182336
aF0.09256719703486753
aF0.05378821266230939
aF0.06869774540865001
aF0.04714521343258497
aF0.03020990314303431
aF0.0415008169776262
aF0.04416522931673528
aF0.04477602192098599
aF0.04024465913754324
aa(lp78
F0.9637850369552394
aF0.9587379362244325
aF0.929435433231367
aF0.9604077519207977
aF0.9616055772098808
aF0.951841082960878
aF0.9291870288511055
aF0.942728462178553
aF0.9631614652572693
aF0.9159932204353533
aF0.8889907830944618
aF0.8701048336975706
aF0.8410688209103673
aF0.820916298937613
aF0.7839899636399198
aF0.7241966902019401
aF0.6471369460620832
aF0.5651052135125867
aF0.47790056645468254
aF0.3963537398916275
aF0.355337744305178
aF0.32065404156286764
aF0.29109440124960656
aF0.2533632375453604
aF0.1686018363323717
aF0.15243775932836137
aF0.12353783712292186
aF0.09375549034815563
aF0.0739214745466482
aF0.07100788137735412
aF0.03301521754289452
aF0.03279878369927553
aF0.052810294241342134
aF0.04249074534271561
aF0.03926735421886474
aF0.03664753614719805
aa(lp79
F1.0
aF0.9556971177322823
aF0.956777573716464
aF0.9588552591823841
aF0.9749416017198747
aF0.9606213470401872
aF0.9395047111079619
aF0.935221500335512
aF0.9179019514358833
aF0.8780318699584904
aF0.9064370075334341
aF0.8501385182136548
aF0.8387725848946493
aF0.8072439293684055
aF0.7691653948100936
aF0.7412297434004048
aF0.7128248084260531
aF0.5873586704571643
aF0.4355535856457536
aF0.391476709039771
aF0.32278267408237576
aF0.3334446128031379
aF0.2847474194120219
aF0.2764268082233107
aF0.19980869813741708
aF0.15264914730326112
aF0.12497132141880951
aF0.09436348956891893
aF0.073040121483605
aF0.05077403496958819
aF0.0011300891229514831
aF0.0
aF0.02969813550145139
aF0.0021468605223533208
aF0.028224057833926296
aF0.024404821834872876
aa(lp80
F0.9699039671250341
aF0.9661275168928275
aF0.9626507128605918
aF0.9656588276710477
aF0.9410416606307508
aF0.9186566535673767
aF0.954453175290858
aF0.9193875087182074
aF0.9122735419201632
aF0.8964730238755264
aF0.8802803671631717
aF0.860885514072338
aF0.8371571771460026
aF0.8043039572357592
aF0.7616116183029896
aF0.6933644119963525
aF0.6297177320588486
aF0.5432539512541203
aF0.4632207701190747
aF0.38461383932611914
aF0.31058624201058144
aF0.32186572583103407
aF0.2595738456553609
aF0.2335715638994275
aF0.21066535720930113
aF0.15921509762128094
aF0.12331606539739004
aF0.10298492093353627
aF0.044686104578259334
aF0.05287338603814066
aF0.06169666731890626
aF0.03636886666645063
aF0.0455008608217663
aF0.02262825596085358
aF0.025364554935744046
aF0.03250785010558618
aa(lp81
F0.9569313910737929
aF0.9590653435618925
aF0.9722222222222222
aF0.971030035055274
aF0.9460469887309024
aF0.9262998016892251
aF0.9155780514452841
aF0.8749212658873008
aF0.9008530587159921
aF0.8914228920433204
aF0.8814861217982282
aF0.8560487409768985
aF0.8367377531957065
aF0.8265428180000707
aF0.7566342307272736
aF0.6942153953731626
aF0.6202429406560613
aF0.5427603085160473
aF0.4362320662017463
aF0.3895434809223839
aF0.3334932544767115
aF0.28157720159420335
aF0.2473299454566504
aF0.22180629943490074
aF0.18004231890738334
aF0.17007929600493812
aF0.11700629976559666
aF0.09195868555969967
aF0.0732506493302939
aF0.061629446263048594
aF0.07745943525460813
aF0.04756319814049506
aF0.03173045831005198
aF0.021413911218003887
aF0.019077759020985505
aF0.0027671975199793086
aa(lp82
F0.9500953521150394
aF0.9305554756368263
aF0.9673785862214827
aF0.955923152819348
aF0.9508912216032891
aF0.9386555452417013
aF0.9286670292409509
aF0.9267654685211376
aF0.8931767620431089
aF0.8840461589400674
aF0.8739800659531703
aF0.8616080400218297
aF0.8369337996074386
aF0.8014690894421218
aF0.7768682948046058
aF0.69415977527244
aF0.6215005246712798
aF0.5282203692300347
aF0.4159916042378888
aF0.3956613119577889
aF0.30680104383400236
aF0.28053567934692714
aF0.23128922935745283
aF0.2396953893051056
aF0.17756638013749607
aF0.14369112470459777
aF0.08040557453284895
aF0.09226850470518437
aF0.10163302885085121
aF0.03405862154710988
aF0.04816043860079166
aF0.042676127188992906
aF0.04316592780248444
aF0.0
aF0.02263235385106597
aF0.024952385485339082
aa(lp83
F0.9374535255102484
aF0.9241954457080225
aF0.9404036496710981
aF0.9478627646500113
aF0.9506914870184954
aF0.9795977203550338
aF0.9338198901215965
aF0.9090568588698077
aF0.872981009906265
aF0.8763083053109217
aF0.8688952067844403
aF0.8615557635529151
aF0.8279708898376618
aF0.7974269016651802
aF0.7489525954825909
aF0.6904146313536907
aF0.6182121129054639
aF0.5463727531870551
aF0.41990573470961157
aF0.3822704635814343
aF0.32737458214644244
aF0.27682481540117276
aF0.24373023176066866
aF0.21496756293153862
aF0.1819352181368381
aF0.13960953689254424
aF0.10314662308373676
aF0.09187049536563469
aF0.07965613300613668
aF0.06539981327219627
aF0.04840874961607897
aF0.014071303549107123
aF0.03798200881806386
aF0.03046039477251312
aF0.03492905325504666
aF0.05653481499159732
aa(lp84
F0.9185928378110341
aF0.9230474298329066
aF0.9376924839794395
aF0.9355893158770932
aF0.9364493081478898
aF0.9598297767746837
aF0.9251944482434703
aF0.9028602466423795
aF0.8756996274303458
aF0.8650222485993897
aF0.8632472904716716
aF0.8535536041523848
aF0.8198798190483402
aF0.788836820591692
aF0.7441488885361119
aF0.6855309831490614
aF0.6159232280940218
aF0.548662718815384
aF0.44557581231581106
aF0.4093951336191789
aF0.33714472775148013
aF0.2409804817410624
aF0.2503892612585419
aF0.21935432045021744
aF0.1779712415131776
aF0.1422068484033763
aF0.11021553445288249
aF0.0990808401993485
aF0.08546505329705874
aF0.07250996505797147
aF0.059444148723934775
aF0.056614965945945395
aF0.07662032676531072
aF0.04270941878897722
aF0.03645511910360587
aF0.033794448679180494
aa(lp85
F0.9016662696308178
aF0.9074977777753684
aF0.9171370653375032
aF0.922800101605727
aF0.9304241461016999
aF0.8977064295846199
aF0.9109084260782604
aF0.9078442104377747
aF0.8874454749679083
aF0.8758346418579732
aF0.8562816951097862
aF0.8373505917757836
aF0.8125020596387106
aF0.7762659563434916
aF0.7368210022825132
aF0.7155120792361861
aF0.5948211578749042
aF0.514297752457825
aF0.4358725326311956
aF0.3990282002189482
aF0.3433436663422443
aF0.30065528694147003
aF0.26916453680396835
aF0.24063671780415538
aF0.17823056186004005
aF0.16332405694241475
aF0.1251929105441681
aF0.11136721827635902
aF0.0902106682936799
aF0.08000003653556473
aF0.07702084162349193
aF0.06493542235054173
aF0.07818051415299138
aF0.068849583228366
aF0.0
aF0.04155718495081214
aa(lp86
F0.8692761184516075
aF0.8908134436853659
aF0.908249890480533
aF0.910848966548353
aF0.9054054066750065
aF0.8964836228278336
aF0.9018904283183158
aF0.8924802883283743
aF0.8790416973380069
aF0.865195340728929
aF0.850482251851441
aF0.8328462278546521
aF0.8028762885439642
aF0.7707477787627255
aF0.726937146772013
aF0.6774364187897483
aF0.6154052994529681
aF0.5278485239385668
aF0.41104601339342145
aF0.42696713187110474
aF0.31900526979799854
aF0.31486279390074684
aF0.28436964072447524
aF0.2663277800758048
aF0.21869683999218428
aF0.18325242273773057
aF0.14942320879520612
aF0.12913881080324072
aF0.10668567961348323
aF0.0985581675957042
aF0.0928814757378571
aF0.09193132475010239
aF0.0956840004735815
aF0.08133860767947164
aF0.0727931613164141
aF0.06467096537558815
aa(lp87
F0.8603607386263054
aF0.8794672121305442
aF0.895360289161346
aF0.9155347988643873
aF0.8916154323555957
aF0.8806254062417967
aF0.8779041691832933
aF0.8733150757075788
aF0.8685116559687538
aF0.8607185906668766
aF0.8409368803976011
aF0.8145210771497747
aF0.7875365279556686
aF0.7518055874562277
aF0.7102498949746697
aF0.6726872620400838
aF0.6436421783423687
aF0.5416214218591441
aF0.46655370872198315
aF0.39838260846997264
aF0.3828267275532599
aF0.3261037820471087
aF0.29733305790391573
aF0.2634075445696471
aF0.24336163997879656
aF0.20888849144544863
aF0.17764130661037938
aF0.1497703016731892
aF0.12715006349813948
aF0.11217884174640187
aF0.10249830819227956
aF0.11142564212328443
aF0.11246037498031018
aF0.1141728829714487
aF0.10590073922696815
aF0.1027274740313845
aa(lp88
F0.8607618394568842
aF0.8296586698999341
aF0.871656729065995
aF0.8767352652370864
aF0.8710995993048116
aF0.8608311555771193
aF0.8602592466177527
aF0.8555892125182796
aF0.8489807360256737
aF0.8362669838460012
aF0.825586394812483
aF0.8021567513587127
aF0.7737367540439882
aF0.7345045248428561
aF0.7045061672313172
aF0.639383368225964
aF0.6405272245474203
aF0.5651915014094948
aF0.462930092819336
aF0.40549917256383855
aF0.36388423889484794
aF0.32347991045364133
aF0.32660299139899923
aF0.27734838489186003
aF0.23368758006753915
aF0.23598497383804382
aF0.1935004280580752
aF0.1741153979919021
aF0.1446490682530939
aF0.13638920158522402
aF0.13320605831224938
aF0.13308225066958226
aF0.13077479418799193
aF0.14006164514410233
aF0.14140723733614688
aF0.1269060868939154
aa(lp89
F0.8757303819538332
aF0.8572968428453404
aF0.8633188508237515
aF0.8477812889367305
aF0.8460411547083622
aF0.839935741518247
aF0.8341429311739464
aF0.8575910836781749
aF0.8199969692130452
aF0.8004335436011197
aF0.8219208306443604
aF0.7815802016431084
aF0.7487936921553588
aF0.7174279581685825
aF0.6772700247196998
aF0.6576029629986992
aF0.6108379898402186
aF0.5107566669564964
aF0.4406531673284339
aF0.37296956038254975
aF0.3540368930483713
aF0.3088626811080831
aF0.2879384339779949
aF0.29550243293190465
aF0.27237597870980645
aF0.24801372262708998
aF0.22235358130520666
aF0.1991853547445984
aF0.18510828000448132
aF0.1681939834951958
aF0.16630413398356284
aF0.13855149608878836
aF0.17247790325893142
aF0.15140264108535756
aF0.1833219795692598
aF0.17931366734327742
aa(lp90
F0.8656076360901648
aF0.8797827513203998
aF0.8087851046467549
aF0.8161887492141072
aF0.8129130039472222
aF0.8291100070623626
aF0.7998515152162028
aF0.7684395108774792
aF0.7992402680706615
aF0.7880795802729664
aF0.7832519916828127
aF0.7602632385172957
aF0.7293642171495924
aF0.6824430175245518
aF0.6545196019266117
aF0.6243751359739419
aF0.6133637456178539
aF0.4907328802875331
aF0.2581348670798771
aF0.3606431454350922
aF0.3516953936092813
aF0.34303891189370955
aF0.332336234128757
aF0.31254152326177304
aF0.32263383952670727
aF0.2773509169576031
aF0.22975802529815237
aF0.22676462846870443
aF0.22191501451095852
aF0.21317030586118557
aF0.20809882217201206
aF0.20244641177881859
aF0.20973053305384703
aF0.2740606942846145
aF0.17267260984265936
aF0.21402286834528159
aa(lp91
F0.8130143311155343
aF0.8149665625198348
aF0.7904071054716887
aF0.7837140641495582
aF0.7647558454114965
aF0.764494388417258
aF0.7248555753083439
aF0.7448636891980793
aF0.743063773122452
aF0.7848990275424264
aF0.746513598673597
aF0.7749628570774355
aF0.687314097966056
aF0.6488264056919886
aF0.5911100520013192
aF0.6176288398724646
aF0.5664369470627286
aF0.5216264680366446
aF0.3990394142665378
aF0.33759941598959325
aF0.3687504081001954
aF0.3436614350063747
aF0.3235903469477807
aF0.34368457155807947
aF0.3261381652995545
aF0.3096435374621345
aF0.29470667030664194
aF0.25243032058736664
aF0.26841225918810535
aF0.2636633003464412
aF0.25462411613027003
aF0.25889701219875977
aF0.21186152805262104
aF0.26794517141811997
aF0.2705088620879755
aF0.2620431243355043
aa(lp92
F0.7401692821110183
aF0.7648533689314628
aF0.7548256801604892
aF0.697579106711676
aF0.7116543577054955
aF0.6926874021618893
aF0.6860550684575516
aF0.6837768020515681
aF0.7167060986007964
aF0.6566627958080367
aF0.6762429233447236
aF0.665878916897752
aF0.614671220688652
aF0.6148907421517456
aF0.6114983284484435
aF0.5976346968782337
aF0.55714262536569
aF0.5052130579072512
aF0.4464260176891474
aF0.40597969122070504
aF0.39207496146282333
aF0.41307914420508796
aF0.4294531036242387
aF0.3627298610193371
aF0.34453891149543997
aF0.3438493953377263
aF0.3433196448426133
aF0.32773620620956406
aF0.3200962442808666
aF0.31940259835172974
aF0.31895308371411885
aF0.31536970408681714
aF0.31720666839706296
aF0.32031514707601877
aF0.325128734694383
aF0.3252320024014988
aa(lp93
F0.6607828108210503
aF0.6623115000277989
aF0.6540672838927329
aF0.6562892502386772
aF0.6276454712986466
aF0.6210697859630238
aF0.6163925291548842
aF0.6227279629727805
aF0.6151537673513578
aF0.6085469594671898
aF0.6086689781712779
aF0.5904979261629554
aF0.5900230430718132
aF0.5938664002488897
aF0.572962659941786
aF0.581058749789699
aF0.5795657400549878
aF0.5181877705530158
aF0.4488396581073021
aF0.4323778391562462
aF0.41957645619538897
aF0.41083178650138824
aF0.4053504982967591
aF0.392307783238221
aF0.34040944078564445
aF0.38295881682834404
aF0.3877271314903034
aF0.37939348421897484
aF0.37224559465626744
aF0.3732081913931687
aF0.38090685684584824
aF0.3823744733593258
aF0.3871130185066318
aF0.3908037164721932
aF0.3825647754066644
aF0.37978048441175954
aa(lp94
F0.6228863164408567
aF0.5761148371282466
aF0.5633407375932044
aF0.5572416826181806
aF0.5311903164400659
aF0.5265434000556809
aF0.5424820631781856
aF0.5315202440795139
aF0.5339885855472537
aF0.5287406214688861
aF0.5234417532200402
aF0.5156265293746995
aF0.5124412742503989
aF0.5144887366574872
aF0.5208236323586549
aF0.5270291868712191
aF0.5444464258739351
aF0.6010455973618418
aF0.4953189194914696
aF0.4160138060491864
aF0.43218808212017346
aF0.4504700670175377
aF0.3827438256670035
aF0.4019579387916809
aF0.4146820505834808
aF0.43900370192141097
aF0.4503777336173189
aF0.43381301046767684
aF0.39706704497792694
aF0.42370452330945507
aF0.45126658634348066
aF0.4561666729948887
aF0.4325174949925342
aF0.43952081783394
aF0.39464710017317295
aF0.4149923133413965
aa(lp95
F0.44107481658986036
aF0.4632714820191824
aF0.4808307493073773
aF0.44946847153380437
aF0.3681175361710007
aF0.4204024790991794
aF0.45801153623760715
aF0.4156127076789737
aF0.4425396123541886
aF0.440728962412524
aF0.4449427342292756
aF0.4295084146718136
aF0.40535587416290136
aF0.44278774364774337
aF0.4575549436037499
aF0.4564474889595095
aF0.48688987756160573
aF0.47720964314684977
aF0.5642018421960635
aF0.5037700106048869
aF0.519104195776956
aF0.5465313876835515
aF0.4872888008724095
aF0.4848696125734578
aF0.5249385235033299
aF0.501095106480745
aF0.5347812972618524
aF0.5434708807643442
aF0.507852313006225
aF0.5109550063431947
aF0.5497627372886296
aF0.5310301008193757
aF0.5406004051274873
aF0.5206419269863815
aF0.5122768096235367
aF0.5073197911692593
aa(lp96
F0.4185832897275758
aF0.3906243760249896
aF0.4027101777416689
aF0.3779467216612454
aF0.3853865694515381
aF0.38403134141265366
aF0.36338705364413737
aF0.3935724601975971
aF0.40106654185072893
aF0.35487995447788184
aF0.34071365043693885
aF0.4113562286700206
aF0.38017104068156615
aF0.4003021044706739
aF0.3933136644732797
aF0.42334551216303223
aF0.43621424720567736
aF0.4252315567641756
aF0.5412450061628247
aF0.5405646131008545
aF0.5417618924645669
aF0.5375759727340986
aF0.5424589263715068
aF0.5522047183905335
aF0.5733222630002669
aF0.5691002980302367
aF0.5694360139869334
aF0.5780232714177845
aF0.5838245048043996
aF0.5863339856537948
aF0.584434952047807
aF0.5962042131865529
aF0.6361899009539459
aF0.6000831110227427
aF0.5950172839096664
aF0.6083165741432205
aa(lp97
F0.3535124511747159
aF0.34748207327117286
aF0.35107489522415936
aF0.3549380652937136
aF0.3790042368354246
aF0.34897623745710243
aF0.3486826439853746
aF0.3435497944604302
aF0.35219828208762016
aF0.34595744437156656
aF0.3519783601953504
aF0.3554487264715694
aF0.3650581059346191
aF0.3708301404349179
aF0.38422950469652206
aF0.3918454490824988
aF0.3808667834563925
aF0.44891796628332553
aF0.5341692429685587
aF0.5677371891428524
aF0.5528585993442625
aF0.568097019290715
aF0.5777217901161991
aF0.5906362595738237
aF0.621469753587159
aF0.6049404162187613
aF0.6160429569553832
aF0.6324661049600845
aF0.6278119192632605
aF0.6265792687438085
aF0.6295783747347512
aF0.6417223235711105
aF0.6532933156318713
aF0.6617266965734933
aF0.6622322220143899
aF0.6651099812065334
aa(lp98
F0.29485291355900384
aF0.30051271068026664
aF0.3297394371466245
aF0.3052606633234185
aF0.30860858481463843
aF0.3100283087705402
aF0.30928458733905834
aF0.3392988220510064
aF0.317143428268341
aF0.3286031092882406
aF0.3279439993374664
aF0.33573016997259125
aF0.3296093985962096
aF0.3336671397087464
aF0.37717434678763495
aF0.3820732998367549
aF0.3589688902938839
aF0.41092739178009835
aF0.5046004540790826
aF0.5548451234022291
aF0.578102164250074
aF0.5945254529618335
aF0.6272133231323025
aF0.617200154491815
aF0.61816276272035
aF0.6413636206851888
aF0.6238496075371109
aF0.6999538306275138
aF0.671030153432409
aF0.6406801533456845
aF0.6736480280404876
aF0.6856673829173597
aF0.6958709439494323
aF0.7028691143999168
aF0.7364361026146408
aF0.7159065619983268
aa(lp99
F0.23719239264891046
aF0.23610830555578888
aF0.25490465917396926
aF0.25574119233981396
aF0.25228794127765025
aF0.26504259821831183
aF0.2719903375892288
aF0.2677432219087222
aF0.28599986679335004
aF0.2806085404322805
aF0.3092446730096708
aF0.3174489999251876
aF0.32195775581503455
aF0.31746826544578866
aF0.3561885042654063
aF0.383751601873878
aF0.423200832132185
aF0.4486911831217739
aF0.5102851831848142
aF0.5613417261429334
aF0.6157855063601707
aF0.6141554566082198
aF0.6289311089874995
aF0.637252699415537
aF0.6404184284787418
aF0.6568262568416695
aF0.6817494734234216
aF0.708608153326081
aF0.7037772331645056
aF0.7014838043306512
aF0.7138537435855641
aF0.7496000438274969
aF0.7288859444832406
aF0.7411287744808223
aF0.7679512215682842
aF0.7443688200020963
aa(lp100
F0.20861497566675802
aF0.1989837707820381
aF0.20195405201950292
aF0.21307319743527653
aF0.21056439598475565
aF0.2361744920474551
aF0.22803659332697898
aF0.22657913998956966
aF0.24910200309392924
aF0.27924415208710723
aF0.2951538455554868
aF0.3020719132039284
aF0.3144524928310759
aF0.32207430510559226
aF0.3545089894469999
aF0.3771865248161868
aF0.3525616243932646
aF0.4503151385926796
aF0.5140334469480683
aF0.572708906748394
aF0.5996580025042562
aF0.6258706039588252
aF0.6526168346951154
aF0.6646508547289488
aF0.6690423810534315
aF0.6839774065179673
aF0.7057188151316712
aF0.7419763799410246
aF0.7303939864943608
aF0.7328746322549158
aF0.7416899154137467
aF0.7826276563354342
aF0.7620694441237169
aF0.7694888912515221
aF0.7670899212496546
aF0.7608460714126585
aa(lp101
F0.16038493964994344
aF0.14337618017435183
aF0.15073050289351278
aF0.16411044932770483
aF0.1455130954427193
aF0.18045819342877722
aF0.18877588483943195
aF0.20286947374217265
aF0.2307091649480173
aF0.29877866200654707
aF0.2778359397515229
aF0.28674233373187824
aF0.2861920005749356
aF0.31364281465378646
aF0.3097078189257428
aF0.35968605293599604
aF0.4064523485301827
aF0.4241024639087529
aF0.5233266596660747
aF0.5698474713918932
aF0.6016920315294284
aF0.6325872857957847
aF0.658652056159074
aF0.6713851809269299
aF0.68717509240987
aF0.7162456031994872
aF0.7260013188963222
aF0.7412085538064703
aF0.7668449451773901
aF0.7440400835923143
aF0.756990757367258
aF0.7931404375890007
aF0.8334820280789057
aF0.7869518633700547
aF0.7860216045423906
aF0.7847476502210524
aa(lp102
F0.09450488349339219
aF0.10260415938579705
aF0.0572671725067308
aF0.12658477999849058
aF0.15957275640390653
aF0.14087600394478883
aF0.15079824727163904
aF0.16317073170673332
aF0.19670829099240814
aF0.22542628291865893
aF0.2498103332076171
aF0.2718478484664871
aF0.28603459562356276
aF0.3031036295799529
aF0.32961540403667305
aF0.3553835127397118
aF0.3914797154533764
aF0.42130818613236076
aF0.5358579944205535
aF0.566471827644911
aF0.6318462123023393
aF0.635800700256483
aF0.6508373745022734
aF0.6812715917087512
aF0.7075367974701078
aF0.7262017265759494
aF0.7459497049281879
aF0.7535084153838828
aF0.7636345918258064
aF0.7696569078070735
aF0.7633263852365219
aF0.7935053528329487
aF0.8054250780944475
aF0.8092677849336235
aF0.81132898578301
aF0.8028047590854707
aa(lp103
F0.0740570055883401
aF0.07023779073888915
aF0.07308256242944844
aF0.08113795861249304
aF0.09783521085614517
aF0.10877685831047786
aF0.11128343189019964
aF0.1274812130643577
aF0.15934366159979543
aF0.16414997115521723
aF0.2155172563473279
aF0.24629463178700328
aF0.27334421377203527
aF0.3007025604337117
aF0.32200758812531577
aF0.3609297124919174
aF0.3625969762726602
aF0.37704450494369157
aF0.5017618240030316
aF0.5695198544059066
aF0.6051281436080597
aF0.6396916398960709
aF0.6638278288020576
aF0.689993454356363
aF0.7169926656100908
aF0.7428367681472631
aF0.762186995968293
aF0.7750454902323941
aF0.7799181008095893
aF0.7883122729892218
aF0.7970326767714653
aF0.8102853552522321
aF0.7892247647627413
aF0.8280145637752909
aF0.8185624294459443
aF0.81488006812517
aa(lp104
F0.05801531409078479
aF0.04733697563522814
aF0.057975418517573186
aF0.04387391105059765
aF0.047140074881015404
aF0.07988756921810544
aF0.0912786108272941
aF0.07784362157976174
aF0.1275254036198197
aF0.1636823233607202
aF0.17291854457996142
aF0.22185541645805773
aF0.27107790398199927
aF0.2815820121559384
aF0.33597098440300643
aF0.38055797379668194
aF0.37471466382436214
aF0.4040627110765419
aF0.5273134866786152
aF0.5778402644130878
aF0.6104465136185878
aF0.6443095989237291
aF0.674647027975737
aF0.6914593142441958
aF0.7282627130672275
aF0.7591343702049064
aF0.783702901481806
aF0.7981594069995926
aF0.8056531102236525
aF0.8092851779743536
aF0.8226767996990371
aF0.8233453361750614
aF0.825957605098842
aF0.8404991075535648
aF0.8170156754126178
aF0.8230538627091708
aa(lp105
F0.0362317124434407
aF0.0641333758380557
aF0.06447576665833667
aF0.06388472850396198
aF0.06302862154932917
aF0.06894020411563274
aF0.08919346096412041
aF0.07786938929193359
aF0.09844867158464186
aF0.11961001355794092
aF0.18230336716275508
aF0.19657201223528234
aF0.2368720261423244
aF0.28199401148400505
aF0.32387249581700567
aF0.3498735109955742
aF0.36249793724556917
aF0.4000777301007449
aF0.5038171567426106
aF0.5651570200374006
aF0.6139317667258523
aF0.6685620309817567
aF0.6831623996040254
aF0.6945411724699109
aF0.7464966035775794
aF0.7742190764057449
aF0.8022885823856845
aF0.8402231791696347
aF0.8275666926350279
aF0.8275132259520174
aF0.8305356962677851
aF0.8331943173317783
aF0.8418176107253782
aF0.8401312741052048
aF0.8503759725437257
aF0.8658916651099501
aa(lp106
F0.029797851767526112
aF0.08661194114395032
aF0.08755569913898553
aF0.06419229297019782
aF0.08259425279751732
aF0.05415397542770459
aF0.01908487940408994
aF0.054565089306002214
aF0.07074289640922647
aF0.09688208857405811
aF0.10992801025892442
aF0.1675104404551139
aF0.21821737731602783
aF0.27110228420067706
aF0.33195699434694487
aF0.36700546633321557
aF0.38553888257525526
aF0.44383180544527523
aF0.5081144521328854
aF0.5732966864960077
aF0.6180625653531927
aF0.6530364258534956
aF0.6722248133533419
aF0.765481477415553
aF0.7636895081314979
aF0.7892396154453739
aF0.8108001194030957
aF0.8533911847678828
aF0.828792605244311
aF0.8589645350522873
aF0.8394250320945176
aF0.8399293251825806
aF0.8409638968398586
aF0.8481282527537805
aF0.8569398588308889
aF0.8695619523738752
aa(lp107
F0.051115071827094787
aF0.050988618451006544
aF0.056718339523350446
aF0.05139217065551147
aF0.043646974466446865
aF0.034844893309076246
aF0.03208986398448229
aF0.00896283748311491
aF0.04619665115448845
aF0.07147876443343494
aF0.08092006401552568
aF0.12369314828327847
aF0.2008654976637625
aF0.28324583817634974
aF0.3076750101149441
aF0.34253627866068925
aF0.39458580279370903
aF0.42382375298568914
aF0.5350508499537678
aF0.5890175177412613
aF0.6014838158027584
aF0.6632106875097192
aF0.7021316964245452
aF0.7412621007667708
aF0.771758793986776
aF0.8184450601211407
aF0.8210045458643278
aF0.8575140231124778
aF0.8188299382147349
aF0.8386516273012162
aF0.8427272784891523
aF0.8435731924878801
aF0.8461666393126914
aF0.8295805790973292
aF0.8757515864941334
aF0.8767453750861304
aa(lp108
F0.01591487244682964
aF0.03787931712152152
aF0.041588226712564486
aF0.04190878014497162
aF0.038290712864508115
aF0.03066505239579021
aF0.02732910459845478
aF0.029130332363096985
aF0.04357687101561799
aF0.07236557647724018
aF0.055984116914941096
aF0.12964092896318344
aF0.18733442904950579
aF0.23447760874382176
aF0.32887215099286954
aF0.33629578032970964
aF0.3801538200833217
aF0.3969891412986731
aF0.5018206439030232
aF0.5729692803148475
aF0.6256261842136496
aF0.6747423830434882
aF0.7068950680968054
aF0.7389350409475833
aF0.770736673716955
aF0.7946004258662135
aF0.8176482840355938
aF0.8541292662728432
aF0.840816684952252
aF0.8410885017306131
aF0.8189375407390354
aF0.8443315116151312
aF0.8575531330906638
aF0.8646762796881652
aF0.8801861918966367
aF0.8858590465406034
aa(lp109
F0.027925241779198418
aF0.028649842794570436
aF0.02976397880212781
aF0.03380670077329315
aF0.039888408875185986
aF0.028763068508527154
aF0.026081352659053116
aF0.0
aF0.045494086178073684
aF0.076311253743624
aF0.0959857391625033
aF0.1310478817377038
aF0.11595688973593966
aF0.22264982115508244
aF0.19708343202231027
aF0.32275173035152355
aF0.34605213845316024
aF0.39454482307210026
aF0.5266905172326705
aF0.5726160328521371
aF0.6546751754055978
aF0.6730449471084817
aF0.7103169545746874
aF0.7417952290462039
aF0.7659814326029181
aF0.7929972234913185
aF0.8281168964818112
aF0.8374594712750442
aF0.8369458526419686
aF0.844901883325892
aF0.8418035409548582
aF0.845675999513232
aF0.8583169455677675
aF0.863781091467696
aF0.9058632602493664
aF0.8926266977181617
aa(lp110
F0.024777400860088575
aF0.02656993917472556
aF0.023884531271887256
aF0.05402731050893696
aF0.03469270004646525
aF0.029624150210863735
aF0.0015631391184131285
aF0.0409866946617068
aF0.12611434994847015
aF0.07456146041462948
aF0.09654809320136103
aF0.1317251126706177
aF0.1748154305692011
aF0.22398880859330778
aF0.2919754137994397
aF0.33198342961578103
aF0.36927989812761014
aF0.4243216936292447
aF0.5205113981290072
aF0.5475778685862936
aF0.6254377597912284
aF0.6739668845223789
aF0.7089015731133331
aF0.7623227456490117
aF0.7702855541414243
aF0.7948072304685724
aF0.8172341996411765
aF0.8369049507774547
aF0.8726506414978449
aF0.8511874791891488
aF0.8574255683349845
aF0.8313863816804979
aF0.8558832526975851
aF0.8706125785406565
aF0.9051460527605131
aF0.8887808258179111
aa(lp111
F0.017620298536853214
aF0.021987982195133714
aF0.049992299383297606
aF0.031928948509455234
aF0.03319985294910372
aF0.024897078001872432
aF0.023887306647296356
aF0.04502371615145445
aF0.06283679206844675
aF0.08047326411296558
aF0.09413585654389676
aF0.13591834643134995
aF0.21088397974755851
aF0.23135449613256884
aF0.2834145189829132
aF0.3357967749149887
aF0.35917887296929635
aF0.3811818995010867
aF0.49576390985921687
aF0.5723257997676637
aF0.6306107207792291
aF0.6733545513026366
aF0.7127682063167148
aF0.7416914615440254
aF0.7695988491174531
aF0.7937801372395397
aF0.8186110250733077
aF0.8389541421433014
aF0.8490248572861213
aF0.8548346295846795
aF0.8515750294290129
aF0.853528783498028
aF0.8599431048219851
aF0.869889567814619
aF0.8683393882049416
aF0.8742865411811366
aa(lp112
F0.026521247382920755
aF0.003269332290183849
aF0.0024275937150113544
aF0.03938750795191108
aF0.05374757801161488
aF0.027777777777777776
aF0.02490089025552364
aF0.03786493518092486
aF0.04514280680840716
aF0.057839548369463464
aF0.0932593752456295
aF0.10425277672289925
aF0.18613450020585762
aF0.23880562342870484
aF0.2837971698062817
aF0.33117098330388856
aF0.3352745070302366
aF0.3921539811726076
aF0.5454076517262485
aF0.5804067471042652
aF0.6293664226608033
aF0.6927484171363026
aF0.7115520614384687
aF0.7383812757951647
aF0.761115767175703
aF0.7950686416889198
aF0.8215144932947547
aF0.835653643144741
aF0.8474508998805438
aF0.8552281348579986
aF0.852006464118816
aF0.8561773081281974
aF0.861471292499244
aF0.8662273710554694
aF0.869903174758636
aF0.8405122330010002
aaa(lp113
(lp114
F0.030988152348434612
aF0.03257712734464456
aF0.028950227525918026
aF0.01619833349478849
aF0.04240110159762227
aF0.05087900976383866
aF0.050302395587086685
aF0.058761593426803094
aF0.04704424426619859
aF0.05019093806183091
aF0.041312154604471345
aF0.03131564873456079
aF0.05100723306392245
aF0.05896121075690321
aF0.061709369129023244
aF0.08203056010294547
aF0.09835636987944453
aF0.13612103321779806
aF0.2722889336465036
aF0.24474356739489894
aF0.27412391146126736
aF0.3047885827413806
aF0.31103220586414143
aF0.3164664202500206
aF0.3557172886928277
aF0.3389287879815691
aF0.3208462152354252
aF0.31275279931414846
aF0.32108872071960004
aF0.3209229142101124
aF0.31595162656456327
aF0.3127795423633435
aF0.3043535227262716
aF0.3062038917798532
aF0.3354324517980781
aF0.4393505895859076
aa(lp115
F0.03422663120920636
aF0.01823813095741053
aF0.04035263707054039
aF0.031757384062925866
aF0.03792966320442872
aF0.047887204513984906
aF0.07600067941486227
aF0.05078021360753083
aF0.050875296253570734
aF0.024002704114497266
aF0.05264932792439051
aF0.04757841588655579
aF0.05226714433038568
aF0.06295232728299689
aF0.06549798342376799
aF0.07297117725364648
aF0.074027203847575
aF0.126441041333623
aF0.21248597651210155
aF0.26565073201216055
aF0.25632486503044727
aF0.2990260653145074
aF0.3081056988549012
aF0.3202382598319958
aF0.3150437373118018
aF0.3577912484284829
aF0.34479635390131125
aF0.3322156423332442
aF0.32143479158646593
aF0.31538988579889443
aF0.3073760885706601
aF0.30191261243702544
aF0.3023802579383994
aF0.2680806425605247
aF0.32982110592192443
aF0.34789591490079425
aa(lp116
F0.039030987396885534
aF0.039376025377870966
aF0.039177247836434705
aF0.03622913096561359
aF0.009763638938336712
aF0.03813704131878234
aF0.053338298720206845
aF0.05208126454127333
aF0.049111903914522005
aF0.07526648897242887
aF0.043253895848163554
aF0.048411732496406214
aF0.058210581461141706
aF0.057422827695267555
aF0.06004648183931427
aF0.06759254929075059
aF0.05907060678521692
aF0.14262049835211607
aF0.21741925017848646
aF0.29423233647703895
aF0.32515555948834013
aF0.29611759642733065
aF0.3167476091371751
aF0.314282204587651
aF0.325197907534277
aF0.3497457822469158
aF0.34459930388372007
aF0.33182222554581264
aF0.32013805625170627
aF0.30949442086359746
aF0.301312949844033
aF0.2737972408534722
aF0.29700035308485495
aF0.3074935647632224
aF0.3160954915347107
aF0.3223983208550559
aa(lp117
F0.04113692377468311
aF0.05493254087172213
aF0.04066841911255034
aF0.037551578609102
aF0.04282370282718046
aF0.06624725593437084
aF0.052207495989614716
aF0.04612921443552138
aF0.04151375399686403
aF0.03803002176056882
aF0.03602584337184494
aF0.043401776420804346
aF0.052567726643893906
aF0.05293042808257202
aF0.054554834246188934
aF0.06461300005087202
aF0.08985017766532286
aF0.1346476550155727
aF0.22665165599484302
aF0.2680444461035245
aF0.26968210851377417
aF0.2996165153428449
aF0.29476194441594106
aF0.31261963102081936
aF0.32318419561734313
aF0.32547957344761547
aF0.3366794200348657
aF0.3283846600227481
aF0.31676765121799116
aF0.2944550682322716
aF0.29230182982295166
aF0.2655788345634022
aF0.30284678788594654
aF0.3356589265693597
aF0.3112064191730685
aF0.3112275551139196
aa(lp118
F0.04337159709438817
aF0.023609585084293838
aF0.04585813513317339
aF0.04171527510929282
aF0.04413495537393816
aF0.04867032580417582
aF0.05024683718040523
aF0.04368739635487914
aF0.030826527521217326
aF0.0
aF0.028724729856191556
aF0.0385382531545354
aF0.040954847726304935
aF0.04384220854278772
aF0.04784760984057589
aF0.03933476868738574
aF0.09756030674820099
aF0.15756350980828515
aF0.25144925205441016
aF0.2612119158082304
aF0.28029148732332404
aF0.2833788542162184
aF0.33121682960367477
aF0.3131991617334611
aF0.3205817881713621
aF0.3268678326837939
aF0.3275843745614366
aF0.3212011031993649
aF0.31881963914079353
aF0.2998194012913822
aF0.2941304575683379
aF0.29930073893228976
aF0.33528895471423864
aF0.28514670231681977
aF0.30718270566699607
aF0.30784279558115385
aa(lp119
F0.04752080334715692
aF0.047294414432573144
aF0.042625577042608186
aF0.01609618170432721
aF0.040594822721488816
aF0.04681619231670091
aF0.04660158978061032
aF0.05552926012158069
aF0.028847408668312147
aF0.0021753267700844424
aF0.0326655761279984
aF0.03868879526887207
aF0.04131396886801511
aF0.039235400069869426
aF0.022003781239710425
aF0.0619691028452475
aF0.0968871371889068
aF0.13231361698948751
aF0.2282092979385886
aF0.2788839487127739
aF0.28563218418802844
aF0.2957222922905522
aF0.3070941541738732
aF0.32020177422511126
aF0.32485627526448385
aF0.3283872294992369
aF0.3292774641711282
aF0.32165199252025656
aF0.2845787468973273
aF0.30856254600161087
aF0.3128801643358232
aF0.3131201668164885
aF0.31383892924556017
aF0.3102548552021469
aF0.3088905159270651
aF0.3126330947407234
aa(lp120
F0.03529935671681768
aF0.04290131417286758
aF0.0467092739273043
aF0.04050608983914439
aF0.04258952688686207
aF0.04412146968934485
aF0.04430335636230304
aF0.04051192955437968
aF0.030914231133671432
aF0.005852449268813523
aF0.056324195720501694
aF0.045873716977022284
aF0.04234180735362545
aF0.04242185788606264
aF0.05111231282969462
aF0.06924596370494768
aF0.06910025420798373
aF0.14491293937967858
aF0.3235490314878896
aF0.2741996540767798
aF0.290398371149123
aF0.30247393773391645
aF0.3099395497039038
aF0.3221831088021994
aF0.32999682887758014
aF0.33391621626240037
aF0.3342054349490872
aF0.3366622784516262
aF0.31729155911707163
aF0.31572994008748223
aF0.3240804308860678
aF0.34759781732384715
aF0.3116982174727751
aF0.30979455535566114
aF0.31290534761183514
aF0.32813785415762065
aa(lp121
F0.041683945954956336
aF0.0373451591940031
aF0.04394903013998854
aF0.0448836854210558
aF0.04536668331441776
aF0.04421413005732163
aF0.04273339990141851
aF0.03774079090296706
aF0.037021075800010815
aF0.04094712196725853
aF0.07184803147504462
aF0.041118146576083696
aF0.04415214849369246
aF0.04435885056676064
aF0.05578794203154175
aF0.07313226147080976
aF0.09502059492893535
aF0.147816638465751
aF0.2317088274061251
aF0.26961060835734574
aF0.3140060907034635
aF0.3037384879274024
aF0.3143406065322637
aF0.3288277044894121
aF0.33930983976736967
aF0.335944628502747
aF0.3411215278781368
aF0.340137676653866
aF0.30853622410227405
aF0.32101268146364814
aF0.34772713920743364
aF0.3253131760731294
aF0.318765718086891
aF0.31153162079929797
aF0.3101444714794134
aF0.3146295964491884
aa(lp122
F0.0321235863258636
aF0.012396354957060186
aF0.04205070533388187
aF0.05035555927384494
aF0.04541164775351872
aF0.046027900146050356
aF0.04322085472284015
aF0.04178856609432374
aF0.04463939973609307
aF0.041301986298490904
aF0.04161543855862608
aF0.045903006864119515
aF0.0453852615731563
aF0.049499641654174656
aF0.06167322585805895
aF0.06932033283037578
aF0.08079233025416616
aF0.1583449747660284
aF0.26501519522057637
aF0.2591057501642085
aF0.28921675911459815
aF0.3003554958859389
aF0.31067940701609964
aF0.32680306203935844
aF0.3288032955987748
aF0.33652692020360386
aF0.33445372878263463
aF0.3703543350709649
aF0.3469188811067615
aF0.3317136295979463
aF0.33158629924947003
aF0.33121720721544495
aF0.3201870993060605
aF0.2929452536725294
aF0.31734751090221164
aF0.3129749785425305
aa(lp123
F0.03319724051177173
aF0.03559443206996623
aF0.036500156136163066
aF0.07318156990397989
aF0.03849629679846785
aF0.04485656455425079
aF0.043976627628326534
aF0.044569446933867905
aF0.046373182905822756
aF0.06957128538012938
aF0.04469461332911207
aF0.04230709232994634
aF0.04057294988289643
aF0.05901300356451553
aF0.07661901975516902
aF0.06652321407232038
aF0.09814106210292288
aF0.1342984954316523
aF0.2121554927127385
aF0.26174792910017086
aF0.3055520082055703
aF0.30041851396958247
aF0.3138730575353341
aF0.2978311278060072
aF0.323018038976076
aF0.33866470788917896
aF0.34612803880990856
aF0.3514471867357701
aF0.37313164080475314
aF0.30982826665272767
aF0.32741574066979723
aF0.32743553262746733
aF0.35148277720594173
aF0.33088499849883246
aF0.3545654708338254
aF0.3346817127951374
aa(lp124
F0.03746373210417508
aF0.0388214603755668
aF0.04382175231293281
aF0.045600918210754404
aF0.04621211630427321
aF0.04845625299363653
aF0.0469093143835414
aF0.04574538963045536
aF0.04535954265587949
aF0.0395054124131222
aF0.03551528977368975
aF0.04447665126033931
aF0.04404773034619803
aF0.02551054269580661
aF0.05644870464508348
aF0.004028822033740884
aF0.08630938060884373
aF0.13242662248962556
aF0.20981046187004396
aF0.27377890301201496
aF0.2966048303754168
aF0.3007459084921988
aF0.28687870282532646
aF0.3297544651254581
aF0.3306625302947264
aF0.3382032145748564
aF0.34662862295183067
aF0.35210108218998953
aF0.3811201754006502
aF0.34376279450269065
aF0.33314003319616803
aF0.31073508800127253
aF0.3339595177237998
aF0.3383830026242278
aF0.33124238603533307
aF0.35743065663060736
aa(lp125
F0.04183766265957115
aF0.038723890568824006
aF0.045722737350224495
aF0.04072364488519494
aF0.044817185042089404
aF0.046544560656700346
aF0.0469920123495191
aF0.04674928955734901
aF0.046239836667575966
aF0.039474789155055146
aF0.01864825116116477
aF0.043451588543697704
aF0.045480116118919035
aF0.05295221630376865
aF0.052279555083394345
aF0.06668114591065966
aF0.06168817575681884
aF0.1274384295880116
aF0.20655247827455842
aF0.328017918497387
aF0.33005639046688084
aF0.31085612609393326
aF0.32415312124773626
aF0.331882397560409
aF0.3233798951959503
aF0.34529288823059595
aF0.3520248375165129
aF0.3493408709337615
aF0.3557631218236364
aF0.3244280972180051
aF0.3420265225205447
aF0.37537148529435016
aF0.34931033215044643
aF0.34322612496370813
aF0.3456356343111
aF0.34589558758621414
aa(lp126
F0.04097939041516201
aF0.03922207434121908
aF0.017163526321839477
aF0.04184244358328717
aF0.045971787909979404
aF0.04754400438290122
aF0.04798764043664098
aF0.04788440117648504
aF0.04833209789979107
aF0.04045146126227667
aF0.042806872355833525
aF0.05136601880518942
aF0.0790739282664788
aF0.05231791838644619
aF0.06998126147174409
aF0.10071458508534309
aF0.08274218950214407
aF0.07171424712744262
aF0.19980071992150117
aF0.28378687522413665
aF0.3219869806647298
aF0.32582275803073774
aF0.3390930950749007
aF0.3698399969252467
aF0.35245760444800467
aF0.3563300903052038
aF0.3628731505768424
aF0.3663443558827317
aF0.3437188916208723
aF0.36131314567402534
aF0.3617337271130157
aF0.36063689651796915
aF0.37858939058654617
aF0.3541948039770011
aF0.34298027567431566
aF0.3543003119908097
aa(lp127
F0.04269279900758782
aF0.04199217505559192
aF0.0439844681063882
aF0.05146933050639959
aF0.047358644574343925
aF0.05062669616108906
aF0.0525873364818261
aF0.04732274284884908
aF0.04948330709123968
aF0.0502402883850232
aF0.05180688092309538
aF0.04868002295515379
aF0.05652001035285867
aF0.08983626505575225
aF0.06553795073561933
aF0.08105248179689066
aF0.06444942776722191
aF0.08808877145150884
aF0.20551652805502127
aF0.28297677491172685
aF0.300719838628593
aF0.32319993555458276
aF0.3578772945189325
aF0.360850233209939
aF0.36245547200308503
aF0.37547678165200826
aF0.4053205572110152
aF0.38149861989867234
aF0.38028626166265656
aF0.3826745579784789
aF0.3797565757587769
aF0.3677436763308318
aF0.3708181669582358
aF0.3227159391845564
aF0.38169043737460734
aF0.3574109517189064
aa(lp128
F0.04496476289305007
aF0.04587724188989994
aF0.054803989389426454
aF0.059258375519667346
aF0.059760329189687156
aF0.05505424469016198
aF0.028556042130018208
aF0.053926479103567834
aF0.053535907125401516
aF0.05884064457501461
aF0.06085036045779565
aF0.0632755305740834
aF0.06277765000712952
aF0.06304398455389874
aF0.06621714409292799
aF0.0731360252233184
aF0.09363720439296873
aF0.1465600554779178
aF0.2795168790869287
aF0.28611397756987533
aF0.2897157381538017
aF0.29070096410942664
aF0.3603634246970753
aF0.3526123646172998
aF0.39236374888731884
aF0.36296661576921835
aF0.3957457925797075
aF0.3968871649371592
aF0.4016968634593998
aF0.4055215908304744
aF0.40286926146022145
aF0.4011038166352127
aF0.3909971518484007
aF0.39139494338617514
aF0.3797728591274887
aF0.3730549598231963
aa(lp129
F0.0783148490312907
aF0.06541905581661817
aF0.06723758175535381
aF0.07516871844491163
aF0.06851179008731673
aF0.07091542921428896
aF0.062398285363407587
aF0.0353835054650512
aF0.06725398251032043
aF0.07215123752651793
aF0.07123129004708667
aF0.0727770230825811
aF0.06358129204592099
aF0.04432532983420991
aF0.0722441230820127
aF0.05680001972816904
aF0.08502388229982011
aF0.11055511533063911
aF0.24204792632645455
aF0.3115491401192791
aF0.34488768914397333
aF0.38065927900010316
aF0.3936532500594663
aF0.3833388338350704
aF0.4405066051914165
aF0.413671042052034
aF0.41245995660965146
aF0.41692156460939533
aF0.42175407277676635
aF0.4271874353000977
aF0.4260595769706723
aF0.4330589375433145
aF0.42174122057711094
aF0.4204772740751797
aF0.4440232578472328
aF0.4128590619689437
aa(lp130
F0.078923460875489
aF0.07801422276628285
aF0.08024119710887646
aF0.08362361533210699
aF0.07428181141055808
aF0.07106670968459146
aF0.09152662409679417
aF0.09160026598692017
aF0.06536144295369359
aF0.11446345945478034
aF0.09084016529700312
aF0.08237059914656306
aF0.08418250093690455
aF0.03571597662942025
aF0.09041742733468312
aF0.09146769521333785
aF0.10046958508185118
aF0.1585779463265392
aF0.2862695305058429
aF0.35648076481326524
aF0.4081889398022474
aF0.4363569642051465
aF0.4578060611553708
aF0.4724775318029293
aF0.4895994700993661
aF0.39563027490419833
aF0.41987316223636123
aF0.44420334243273496
aF0.4411133776282314
aF0.41626072877627646
aF0.4591575801905473
aF0.4641643210379686
aF0.43543591572246687
aF0.43885911346825934
aF0.4624604593817465
aF0.46398894635074556
aa(lp131
F0.12105034818416967
aF0.05575082854364108
aF0.08220131999154798
aF0.10280002840757402
aF0.12057139295741513
aF0.14838927310821534
aF0.11492135705086505
aF0.146566537067688
aF0.15699154423035402
aF0.1272624906236688
aF0.043319765217915515
aF0.14481175331353593
aF0.1396200701085318
aF0.11764888765868274
aF0.1283509399227976
aF0.17997968708831466
aF0.222114116499749
aF0.2870331921077794
aF0.408582818266599
aF0.41582952680175467
aF0.4353188719881276
aF0.526300226301673
aF0.544549581686005
aF0.5199100637516562
aF0.5509285370054693
aF0.5418991472398015
aF0.5126877993264176
aF0.4719419009793794
aF0.4557917310159696
aF0.5429115964023249
aF0.5252721635727751
aF0.5463604272112513
aF0.46957545991493943
aF0.5286974155530529
aF0.5393673064688965
aF0.49356516860799393
aa(lp132
F0.18798823125231015
aF0.23149332145668544
aF0.27325616620210585
aF0.21206906126147781
aF0.24785354085873024
aF0.26070590669361277
aF0.2066686168974287
aF0.2056850819652585
aF0.24589357716741922
aF0.2651717482828516
aF0.27314036623314153
aF0.23873906242849116
aF0.20583510798032048
aF0.20419141275146116
aF0.2609082873354342
aF0.25052706772557687
aF0.3009615396514196
aF0.4119658733886533
aF0.5683835164580174
aF0.5953263364999439
aF0.6548833488909865
aF0.6283681657133781
aF0.643507261261277
aF0.6707017221914678
aF0.6506900996048914
aF0.6629915349322949
aF0.6456465032058104
aF0.6657547623300254
aF0.6940848189562281
aF0.6996061011817905
aF0.6518986248599073
aF0.7313052537627863
aF0.634051455196856
aF0.6196228472998807
aF0.6252688602722246
aF0.6796644925820757
aa(lp133
F0.2602805587439589
aF0.2713314156491792
aF0.28362832062337595
aF0.3074915643801997
aF0.27856857100353355
aF0.2651433305154842
aF0.2587363566724949
aF0.25341943327440986
aF0.26199015651968655
aF0.2661448050279741
aF0.26992642016292856
aF0.27201792137267805
aF0.2598079932519119
aF0.26196120010459706
aF0.25117028420370663
aF0.29792899606743667
aF0.36687234562123666
aF0.4942178353614073
aF0.7984488621955715
aF0.6652153203726545
aF0.7051695729814533
aF0.7767669068973087
aF0.7390443711465823
aF0.7399309645276039
aF0.7511375123009739
aF0.7629580014460803
aF0.7541280822620152
aF0.7853599492664659
aF0.7777911459436222
aF0.7742948623358809
aF0.7405319286125563
aF0.7328640387268593
aF0.7323382031085405
aF0.7087263414860069
aF0.7109427860270418
aF0.7156763322453208
aa(lp134
F0.27946591788996505
aF0.2868832758597504
aF0.29872614200636455
aF0.2988721240818453
aF0.2979619565126997
aF0.3136981488041515
aF0.28082778051679314
aF0.28164747354979575
aF0.2821735035141176
aF0.2927404661677143
aF0.2913463253847935
aF0.2987513568168548
aF0.2924475531929423
aF0.2940135348268949
aF0.31680863075304977
aF0.26238650253410034
aF0.40056453133406533
aF0.48785661811060554
aF0.6469136581447394
aF0.7443931751211138
aF0.7211115509852903
aF0.7815169482753115
aF0.800679995880193
aF0.8399046834446224
aF0.8181557420451763
aF0.8245972461365387
aF0.852773481419929
aF0.8275453539798323
aF0.8290167091728644
aF0.8218116305772268
aF0.8139235998461163
aF0.7961583017814209
aF0.7599912630227725
aF0.7824474193347175
aF0.7958429584323158
aF0.7531148558340462
aa(lp135
F0.3064333197937632
aF0.301768306912255
aF0.2943857792140848
aF0.29362118828678
aF0.29471386831582197
aF0.2746913573239688
aF0.29181776055256664
aF0.29154958707219514
aF0.29555085600427117
aF0.3034115898053141
aF0.3083967177350146
aF0.31762036297892987
aF0.2914492566538863
aF0.33755413163517983
aF0.34118940815616416
aF0.37791371039202276
aF0.4370481775871699
aF0.5373987189937045
aF0.6395987810303757
aF0.8074085793931169
aF0.7812712432345031
aF0.8011410922035967
aF0.847414929754989
aF0.8762595217714506
aF0.87193504654782
aF0.877480149928683
aF0.8841029316533122
aF0.891300465008852
aF0.8749207857527675
aF0.8938745111297257
aF0.8697891709148298
aF0.8815101940705581
aF0.8376707566529266
aF0.8664359726695544
aF0.8432308191737016
aF0.8315537186028985
aa(lp136
F0.3046004756536031
aF0.36040217660818624
aF0.2842029222272667
aF0.284606777403057
aF0.2956299686240794
aF0.2987657262190697
aF0.29666299005555274
aF0.29567697088977707
aF0.3090169371764003
aF0.30899753996016455
aF0.3225472825783981
aF0.3298872702688653
aF0.344518119244333
aF0.36201167423887776
aF0.38200049647407297
aF0.39632478433514046
aF0.4822359297550553
aF0.5546576353233529
aF0.6532674307449596
aF0.7428532292645978
aF0.7691989896954419
aF0.8468346156944146
aF0.8587208184094826
aF0.8891620512866995
aF0.901577408830646
aF0.9512298851852782
aF0.9164135111293946
aF0.9328271907960886
aF0.9104479961501193
aF0.9415637803029252
aF0.9102293988226858
aF0.8965544117696963
aF0.8884936848359876
aF0.8630571657812889
aF0.8803360123076854
aF0.8831202690774073
aa(lp137
F0.29728470708410076
aF0.27994927517533846
aF0.22974326030598424
aF0.25855324651769696
aF0.29739234570285117
aF0.3332391169508287
aF0.3062132205047183
aF0.281922644497183
aF0.3072351150473082
aF0.317871080230441
aF0.32906691528108073
aF0.36421800281899547
aF0.3566106692039653
aF0.3705039347183305
aF0.4147429048862388
aF0.37742724151121804
aF0.46460141253720827
aF0.5389914205761276
aF0.691027105650417
aF0.8019478756669371
aF0.7994966711898335
aF0.8350362687942833
aF0.8716914874231327
aF0.9030597959384061
aF0.9135719995423157
aF0.9258496127206018
aF0.936246369687409
aF0.9336420768638449
aF0.9441393989612951
aF0.933884735872496
aF0.9356041549277146
aF0.9248280094677669
aF0.9155802735785682
aF0.9128106606333888
aF0.9206831861940693
aF0.9160003031624671
aa(lp138
F0.2794365895169706
aF0.26407173785250365
aF0.27767595403295875
aF0.2831701924794499
aF0.30306130078211685
aF0.31473394829207296
aF0.3146642464356564
aF0.31045202524974536
aF0.3074274394883977
aF0.3258623073186049
aF0.34177581896496095
aF0.34870130143949707
aF0.3587970761055655
aF0.374361314060876
aF0.37110256279633214
aF0.37820636885992037
aF0.455997847605304
aF0.5465167030124422
aF0.6491942322382219
aF0.7499799042263666
aF0.7955542682760983
aF0.8534929436390102
aF0.8781359921332855
aF0.8996217705166365
aF0.8997485461948749
aF0.9351002448363027
aF0.9526457670017705
aF1.0
aF0.9502887395203903
aF0.9505553713566847
aF0.9529309268376901
aF0.9448802688504808
aF0.9401993057534573
aF0.9388343098567554
aF0.9422546024758267
aF0.9454259098397286
aa(lp139
F0.27641214124194796
aF0.28128930320451356
aF0.2902930334066458
aF0.29908809709971235
aF0.3065607441049263
aF0.31440569598159
aF0.3087299340367207
aF0.3124127085331629
aF0.31951135951388826
aF0.2834982999490956
aF0.3475181977372648
aF0.34642490842693274
aF0.36417467825184024
aF0.34603385252992824
aF0.37961721388656017
aF0.4039687079118242
aF0.4456626993004633
aF0.5055877610216857
aF0.6345953389944952
aF0.7333036840327618
aF0.8022550067832558
aF0.8554395826688251
aF0.8872506767411353
aF0.9073063820471899
aF0.9237465486344757
aF0.9403891643581651
aF0.98730933029716
aF0.963074539927963
aF0.9680031403995217
aF0.9607488576933695
aF0.9601856497291054
aF0.9630884013238882
aF0.9539180408310924
aF0.9544336827828398
aF0.9815134727508408
aF0.9597814311216265
aa(lp140
F0.2913648441903745
aF0.2663119705172081
aF0.30516189394932924
aF0.3100351587867875
aF0.31375294137277754
aF0.3112450601621955
aF0.28196777524043376
aF0.3099045228598296
aF0.32339519730233024
aF0.33289379860152635
aF0.36329203714869746
aF0.3676563234192119
aF0.38497735844283143
aF0.38727423845825176
aF0.39547354967550824
aF0.3818201978441174
aF0.4288476040868096
aF0.5060348002260436
aF0.6565675350749212
aF0.7354721020242514
aF0.8368707847335886
aF0.8575668069958521
aF0.9306605329951059
aF0.9086869680258994
aF0.9229871647178934
aF0.973088376343228
aF0.963997258556942
aF0.9632673371205205
aF0.9656900704591962
aF0.9759894296357186
aF0.9601839828257908
aF0.9680383566616799
aF0.9543403538037367
aF0.9607799437490758
aF0.9871293836779643
aF0.9377022483762474
aa(lp141
F0.2977792478856816
aF0.33440845183118084
aF0.3070740769431523
aF0.31270083466531795
aF0.30990298170675046
aF0.3093570215397144
aF0.3119338623526886
aF0.3620876000305259
aF0.3299115297263742
aF0.33825602539474087
aF0.35788166931354465
aF0.35679472740121804
aF0.42098744858854387
aF0.3964155732000303
aF0.4047040717088404
aF0.39930975473235086
aF0.46864596943431186
aF0.491299863450113
aF0.6367776995804303
aF0.7490872937570133
aF0.8457674152740428
aF0.8574414436194812
aF0.8737298710274929
aF0.8968169537885488
aF0.9244640593659013
aF0.971690780604666
aF0.9535756166280192
aF0.9568907819575133
aF0.9694148370025627
aF0.9694421041013164
aF0.9651452192507994
aF0.9167626627576564
aF0.9549473562516354
aF0.9628040731487978
aF0.9669770439017275
aF0.9626126807203933
aa(lp142
F0.3053658051900158
aF0.28314425144323274
aF0.33867909869559654
aF0.30614466953458397
aF0.3328843373370253
aF0.3084566394314479
aF0.30972199974671555
aF0.31792307938653314
aF0.32549707389477844
aF0.32955836369632396
aF0.2876709523401079
aF0.3630990552522683
aF0.3941610870401168
aF0.37446620258169977
aF0.4091962184629289
aF0.4323595986921254
aF0.47303071560202
aF0.5469344535997226
aF0.6429785776429315
aF0.7572258026763952
aF0.8866302154890592
aF0.8619942258718679
aF0.8851046748270806
aF0.9299374632584871
aF0.9315506650422235
aF0.9652358483641332
aF0.922808537129153
aF0.9554936697246331
aF0.9644381246194444
aF0.975351878416554
aF0.9802442343746677
aF0.960723598823983
aF0.9463623546028967
aF0.9704099357193063
aF0.9624775851818952
aF0.9591732762874852
aa(lp143
F0.3021465236579623
aF0.30743684398027266
aF0.30734034180117015
aF0.30709597291964613
aF0.276475981424859
aF0.30794266261273306
aF0.30955133151628145
aF0.31667652457065265
aF0.32166867261922655
aF0.3295227947180673
aF0.3464720974854459
aF0.36329614756025874
aF0.37723194824423395
aF0.39500120866161653
aF0.4113584451900691
aF0.4357285100828738
aF0.45811553433686897
aF0.466993245189229
aF0.7312682395599319
aF0.7539329257998751
aF0.8026734685476522
aF0.8563128874526235
aF0.890651269208984
aF0.9174875329276514
aF0.9331106289650433
aF0.9162352240592176
aF0.959437563176806
aF0.9554345809260654
aF0.9668914273748704
aF0.973154779827893
aF0.9728347192651956
aF0.9673780237825236
aF0.9834465870366684
aF0.9623328290998989
aF0.9606361898451907
aF0.9584589574442478
aa(lp144
F0.30643480993739564
aF0.30595539952857165
aF0.30806900841918056
aF0.30154571992230167
aF0.30971545622159063
aF0.3108859265641242
aF0.31380400992192675
aF0.2909604344559816
aF0.32316428650766243
aF0.34015846107725506
aF0.37642574788194966
aF0.3692062802409812
aF0.3798565049256742
aF0.39700811890083676
aF0.4120246398211997
aF0.4347715213652448
aF0.45768450918765663
aF0.4802252865177642
aF0.6410435162414821
aF0.7313669463218629
aF0.8302143763314178
aF0.8548578360650182
aF0.9096278239930559
aF0.9134219578145784
aF0.9508273194361035
aF0.9427621918138125
aF0.9471097732368907
aF0.9608597521653564
aF0.9703796013937723
aF0.9854149668175087
aF0.9743876365746044
aF0.9695304762989849
aF0.9537565579403231
aF0.9640976754363515
aF0.9627809880293422
aF0.952039979942969
aa(lp145
F0.30706698180609554
aF0.30746595383036496
aF0.2804138785607044
aF0.3112940766958277
aF0.31193966320322875
aF0.34130978241632054
aF0.31624190253742535
aF0.316090050226592
aF0.3242621442558538
aF0.34453039595955204
aF0.3544435768288373
aF0.3746443774792749
aF0.37715056822835175
aF0.37887141454828843
aF0.43881303613718464
aF0.40396021354926204
aF0.46282727742977214
aF0.5215706302703043
aF0.697675028223627
aF0.7396432778720873
aF0.8010467644993426
aF0.8599148586647111
aF0.8989399606767071
aF0.9367156522918839
aF0.9386656037007391
aF0.9468397962199274
aF0.9529718536383515
aF0.9430850443041949
aF0.9986668841736664
aF0.9830465124531823
aF0.979694083513611
aF0.9677309291187671
aF0.9591975142438528
aF0.9672047394774815
aF0.9699113565929328
aF0.975428002557731
aa(lp146
F0.3082175137786702
aF0.30691511106509245
aF0.3363088066568262
aF0.31423871812785203
aF0.32266417568566
aF0.3208651973198709
aF0.31934158041147853
aF0.31575189240598506
aF0.3224589787150609
aF0.3382742605750204
aF0.3756715179471721
aF0.36259557198496434
aF0.36607570235160813
aF0.3843798948004751
aF0.3959610647073661
aF0.42273382335356935
aF0.4128381204898304
aF0.5086495122726339
aF0.6418390655362908
aF0.7428593306411172
aF0.8135666094840023
aF0.8818575702766953
aF0.9051708749525501
aF0.9270078016442991
aF0.9383015277075607
aF0.952110577942993
aF0.9515105688296978
aF0.9656184323480608
aF0.9741593570265391
aF1.0
aF0.9831376411393394
aF0.9512672086987365
aF0.9729496457471898
aF0.9783158438098463
aF0.9823047787639292
aF0.9829203278544542
aa(lp147
F0.3080391978928439
aF0.31218764662456233
aF0.3088162135395245
aF0.3138678976234734
aF0.31517863092318366
aF0.31738408221391523
aF0.3213533940730086
aF0.3259753497830658
aF0.2779657719234072
aF0.3348095759984299
aF0.3491570464588541
aF0.34882763450294146
aF0.35628365834343384
aF0.34623535673793376
aF0.39385482279793466
aF0.4178482639596714
aF0.45922450877502535
aF0.5223154377056356
aF0.6357194216362901
aF0.7427465889197257
aF0.8440775816036008
aF0.8791105692764187
aF0.9198783486010091
aF0.9313460387038536
aF0.9396257434946539
aF0.9287799465909065
aF0.9505788296113157
aF0.9690030246286832
aF0.9745505837126438
aF1.0
aF1.0
aF0.9840658983358181
aF0.9771396680011692
aF1.0
aF1.0
aF0.9886185571003198
aa(lp148
F0.3089128690898627
aF0.3113005681310014
aF0.3105786115154553
aF0.31143328626325156
aF0.30868938635434334
aF0.3107779367023564
aF0.3205715137595009
aF0.3218416117526202
aF0.3258080216468917
aF0.32751993077137825
aF0.36281965367416824
aF0.3449395372568625
aF0.3524251997743473
aF0.3464827856772857
aF0.3810822371976968
aF0.4189869847159467
aF0.4600288945216249
aF0.512319378062915
aF0.6215127804235495
aF0.767479804712339
aF0.8458576318994374
aF0.8893623673937502
aF0.9232746577547436
aF0.9374841888271765
aF0.9472675634915784
aF0.9454552157957329
aF0.9499228264850229
aF0.9366904318111309
aF0.9696002552048076
aF0.981282205723866
aF0.9859853315373458
aF0.9842327684482363
aF0.9730373671175513
aF0.97352571409377
aF0.9776851094615225
aF0.9831748391412928
aa(lp149
F0.3075753173112276
aF0.3067201548198285
aF0.3288330735848563
aF0.3087287768695643
aF0.28412452265819305
aF0.29224802123137333
aF0.3226584921274541
aF0.3524437343421021
aF0.32806712851541986
aF0.3367985074144353
aF0.33977770860484485
aF0.3468225689188199
aF0.3535123067702187
aF0.3775750253913628
aF0.3899185475855112
aF0.4170382733143504
aF0.42674727092005826
aF0.4500846742333613
aF0.6137222865843257
aF0.7089970538998063
aF0.8278468174378317
aF0.9371276068299212
aF0.929247678906242
aF0.9487923904646629
aF0.9466740014684325
aF0.949757278471675
aF0.9475817780889951
aF0.9552770372719694
aF0.9727443817351364
aF0.9531054556983573
aF0.985369975009259
aF1.0
aF0.9679055574668959
aF0.9198670473291153
aF0.9718448220957239
aF0.9776076194368591
aaaa(lp150
(lp151
(lp152
F0.01309488293349282
aF0.012422555519329552
aF0.011030570333497716
aF0.009691179999406904
aF0.00863197718006443
aF0.00781708033333701
aF0.006735930130779923
aF0.004921993143829126
aF0.004858904652729707
aF0.00719830108816653
aF0.013959580313560212
aF0.01398270633098295
aF0.01105600633976497
aF0.003980523305944174
aF0.0018616194105046998
aF0.001060262295852533
aF0.0031626679246320906
aF0.011191358192295789
aF0.05291632762473837
aF0.07286238946170724
aF0.13729776444378017
aF0.22395570574953366
aF0.33167890186849275
aF0.4072770299653715
aF0.43586083426208544
aF0.4646453257651418
aF0.47635387588703565
aF0.482662068094285
aF0.48598936700661355
aF0.485914024652183
aF0.49245541331431925
aF0.48844606815602065
aF0.47852588097975096
aF0.4750492549626444
aF0.4752882712563766
aF0.48876503219774453
aa(lp153
F0.0
aF0.012691077378213511
aF0.01116070360616929
aF0.009215547308472878
aF0.00852161437452277
aF0.007753127895065985
aF0.006864624374658569
aF0.005437248749648235
aF0.0
aF0.006534490397251587
aF0.010831944974425295
aF0.031653916436105475
aF0.002695919516277317
aF0.002867428899230081
aF0.0010527769845690138
aF0.0
aF0.0
aF0.03468710995782958
aF0.020765481938258137
aF0.06191109023279575
aF0.12074687520299869
aF0.21277922981119599
aF0.3277189388852687
aF0.49815181661723057
aF0.45009876164211243
aF0.4841823882819357
aF0.4769897673807113
aF0.48308512411574583
aF0.4908947718153152
aF0.48739341208953507
aF0.4911208349868304
aF0.5094152770014503
aF0.4747702382781361
aF0.4446040100217092
aF0.5017133177984546
aF0.48929351583045394
aa(lp154
F0.005715970446193558
aF0.015706701450817675
aF0.009556025830636018
aF0.009108504744380491
aF0.008379492161098337
aF0.007739555743618107
aF0.007033807363606083
aF0.006693630336187043
aF0.005547339657425921
aF0.0069083645457043786
aF0.008488550163374521
aF0.008270121193574122
aF0.0
aF0.001923720257405684
aF0.0
aF0.0
aF0.0
aF0.0
aF0.0
aF0.011422722242607354
aF0.05304719752675538
aF0.19955350506926092
aF0.3206130914296626
aF0.44116540247965536
aF0.5357656993075595
aF0.4865705251970622
aF0.5130452538113615
aF0.4855833790048318
aF0.512624063017883
aF0.4895897886709541
aF0.4732061673784138
aF0.48186174636717216
aF0.47393018062583114
aF0.47704463656020635
aF0.5076235202410802
aF0.4966026220400174
aa(lp155
F0.0
aF0.0
aF0.009280437293548502
aF0.008880603745883819
aF0.008503867803843032
aF0.007953655254518374
aF0.007411304726807886
aF0.006774695552775797
aF0.006514859760804484
aF0.006450158097133331
aF0.006293891144877452
aF0.003940400895077999
aF0.002496199966154635
aF0.0016999967662373091
aF0.0
aF0.027777777777777776
aF0.0
aF0.0
aF0.007325623171916303
aF0.0
aF0.07544267222474371
aF0.18997760134805397
aF0.2992816110679974
aF0.399050797455168
aF0.5057956419963685
aF0.4834139775347438
aF0.4743975800163156
aF0.4867311974116985
aF0.4777000804408986
aF0.49063470140031035
aF0.4931865031184192
aF0.4859922874434958
aF0.4764962124623604
aF0.4817838664346505
aF0.4740782214126298
aF0.5114302252152557
aa(lp156
F0.012434842900537727
aF0.007884318471228698
aF0.00839168071597879
aF0.009265444956192678
aF0.008990058769800387
aF0.008529726955358759
aF0.007924710338738735
aF0.007551224836940652
aF0.007146699150290832
aF0.006652760600596215
aF0.005751303547227693
aF0.004393661296662662
aF0.0028060389119307105
aF0.0
aF0.004630045650395896
aF0.0038944837747140804
aF0.0
aF0.0
aF0.007709489332597054
aF0.0
aF0.09938910210293363
aF0.18880130624783412
aF0.281988089379452
aF0.3714124739634845
aF0.4559960513380589
aF0.4651463946018565
aF0.4723244917811929
aF0.47690278713362516
aF0.4813074198044331
aF0.48547682455563074
aF0.49007290582314705
aF0.5121048384401621
aF0.4872231200730435
aF0.4774497026080538
aF0.48377965465624434
aF0.48578412048173564
aa(lp157
F0.011021626725504982
aF0.010701025059750895
aF0.01013393185373357
aF0.010141453049651264
aF0.009794281023416944
aF0.009428065013393466
aF0.008923382428851975
aF0.008720949869362326
aF0.008289055502936389
aF0.007556351984112727
aF0.006286184260262309
aF0.00481002775369019
aF0.0029202326643745567
aF0.002116889760777772
aF0.001106765862373367
aF0.0
aF0.0
aF0.0
aF0.014515994656037165
aF0.048633109290489494
aF0.10524075549002325
aF0.18445800415616595
aF0.27033993009335605
aF0.3485128520607719
aF0.4080150299973871
aF0.44670304265335165
aF0.4680127519837385
aF0.477584510221478
aF0.4823466592922363
aF0.48290098676070486
aF0.48732465248672424
aF0.4877949279266604
aF0.48526901923057975
aF0.48007859997308194
aF0.48152749000587464
aF0.47861931047923223
aa(lp158
F0.011839899092440565
aF0.011348473406873142
aF0.011286968987522674
aF0.01094837671863926
aF0.010766450881121098
aF0.01054468180558523
aF0.010285994109921773
aF0.010244479141736677
aF0.009382089733168534
aF0.008557751757954061
aF0.007111986458996374
aF0.005627176076552987
aF0.003499081787100193
aF0.0
aF0.0
aF0.0015451027266881823
aF0.0
aF0.0
aF0.02264387813357221
aF0.05503783013607882
aF0.07853070686341097
aF0.18664652009468066
aF0.26389599968283634
aF0.33579988257726706
aF0.3990714941558804
aF0.4402530941380755
aF0.4645959429998319
aF0.4986053627013775
aF0.4770378449287742
aF0.48061828243322413
aF0.4815469289938538
aF0.48046998885598097
aF0.4795238524251387
aF0.47782012642683713
aF0.47441720926768643
aF0.47056815231811305
aa(lp159
F0.01160869782892549
aF0.011652609977416383
aF0.011706320089721896
aF0.011771930713241582
aF0.011822694984055753
aF0.011804404423258967
aF0.011717253062093017
aF0.01137347377427028
aF0.010700542158166187
aF0.009585691746748599
aF0.00808866718656313
aF0.006175291127045154
aF0.003986494532067329
aF0.002156904754741245
aF0.0011281985712763949
aF0.0
aF0.003041211082668828
aF0.007544173263134557
aF0.0
aF0.05566875154848131
aF0.14248403241830665
aF0.18607125041800868
aF0.2623326317951747
aF0.3356551049139755
aF0.3948764364373189
aF0.44238673294958336
aF0.46199198516295864
aF0.4771563396888025
aF0.4784432146921103
aF0.4800882648411405
aF0.4774447799296551
aF0.47778546083933243
aF0.4768459748172033
aF0.47199392532283
aF0.4518180327577876
aF0.4663874363574913
aa(lp160
F0.011489833386392458
aF0.011698266586826359
aF0.012054459127618261
aF0.012697116247202744
aF0.012923714806721914
aF0.013253733821098528
aF0.013360878261007257
aF0.013092495171515284
aF0.012332044282453493
aF0.011060268561199718
aF0.009286353487106396
aF0.007103526540314847
aF0.004459582585883884
aF0.002753315529928252
aF0.0013413567511562812
aF0.0012125455049900441
aF0.0017627208629127898
aF0.006508182978861808
aF0.022583008616772354
aF0.05637874003288571
aF0.10356432651670094
aF0.1888312606852864
aF0.2617771519182743
aF0.3357147820513915
aF0.42530595087412587
aF0.43783940892799933
aF0.4598854731513413
aF0.4728262947783532
aF0.5027606798733423
aF0.4742107927689758
aF0.47609094825766674
aF0.4760070201066029
aF0.47588243692725546
aF0.47113513414667446
aF0.4676844481754543
aF0.4669796428852962
aa(lp161
F0.01086338207252252
aF0.011474916631397556
aF0.012111065492628042
aF0.013090240838197301
aF0.014190542539142486
aF0.015086049859672934
aF0.015572642100145279
aF0.015440256061432083
aF0.014616056723394203
aF0.012968161731491049
aF0.010873682279557819
aF0.008338081775080646
aF0.005656539038778684
aF0.002697200699483619
aF0.0012413544388228722
aF0.0
aF0.0
aF0.008658447615530909
aF0.01832122136041155
aF0.0
aF0.10919690969142397
aF0.1843908271995818
aF0.25997495434841483
aF0.3367963554513527
aF0.4021091773554806
aF0.4451065197210211
aF0.46538543473577415
aF0.47253999191407653
aF0.47952718679359524
aF0.47846750299544977
aF0.47487938556720916
aF0.47542896297960896
aF0.47224942963590105
aF0.4757192869090205
aF0.4747128891806171
aF0.47343371943551915
aa(lp162
F0.008311755677115593
aF0.010984407656195525
aF0.011661554592721016
aF0.01363435976266144
aF0.01580555511133717
aF0.01769635554806055
aF0.018728383514889802
aF0.01878626873940512
aF0.01784301023850735
aF0.016004074124222254
aF0.013446575710508515
aF0.010235427245237988
aF0.005909080152139018
aF0.004249873085731042
aF0.0025948969639398725
aF0.0
aF0.0
aF0.0
aF0.01755114276086196
aF0.05370792558338747
aF0.10700639159314813
aF0.18401156788916104
aF0.26427807623232663
aF0.3433053261378778
aF0.4094930849986578
aF0.4780836014386404
aF0.4737837850930792
aF0.4791004325857517
aF0.47814025663649057
aF0.47817281801465095
aF0.47766827635387693
aF0.4742079745200529
aF0.4487952537108143
aF0.47629195411679204
aF0.48011449237669984
aF0.4821185347860983
aa(lp163
F0.0
aF0.007689966939965684
aF0.010626301695590175
aF0.013659133713372304
aF0.018542335837778316
aF0.02163241267583037
aF0.023324950715306478
aF0.023625581846646856
aF0.022398577456383434
aF0.019928436965110388
aF0.016645965285100622
aF0.01300052814453527
aF0.008356074013610621
aF0.00558017656410023
aF0.0026237632347183154
aF0.0
aF0.0
aF0.0039115425624354355
aF0.009203718603343007
aF0.05017067050398174
aF0.0986690961232391
aF0.18562608788413318
aF0.2717415658014897
aF0.35504695916519496
aF0.44725114576356834
aF0.4667649980647768
aF0.4997320406366869
aF0.48234813068882426
aF0.47756308480189197
aF0.47925041423462394
aF0.4819285625188557
aF0.48045882796163863
aF0.4805065593490971
aF0.4749493385459973
aF0.5000069627685929
aF0.48072162076678965
aa(lp164
F0.00938140540386566
aF0.009556627141878013
aF0.0
aF0.016822015786084842
aF0.022938867104407987
aF0.02761966025172738
aF0.030340303365958842
aF0.02996023214465568
aF0.02944193017424905
aF0.024885435002717754
aF0.019793965925954213
aF0.01625515477522571
aF0.013531192504559706
aF0.005556388810522759
aF0.0025327217439227254
aF0.0
aF0.0
aF0.0
aF0.0
aF0.03410083049812405
aF0.09180591080994006
aF0.178897376599938
aF0.30244653442323577
aF0.36701086589620974
aF0.4316083310378766
aF0.48976914286502404
aF0.5157508556656417
aF0.491216289337125
aF0.47363764712431206
aF0.48268200862545035
aF0.4843125857110531
aF0.48368345619074266
aF0.4802013865210571
aF0.4745071594571519
aF0.4768740895876767
aF0.48508454728047984
aa(lp165
F0.014722798293209117
aF0.013942666198945871
aF0.019094910158117973
aF0.020987394142223847
aF0.02928472498749873
aF0.03669274451254533
aF0.040807829785589396
aF0.0419073792326485
aF0.04000873393680188
aF0.03489544893254917
aF0.023955539996739907
aF0.020437938564409328
aF0.014382507946018358
aF0.0
aF0.005618632002973123
aF0.0013484781440548765
aF0.0
aF0.0
aF0.0
aF0.0013620492615856981
aF0.029760758816555516
aF0.17149022556167925
aF0.29182421356759325
aF0.384384648999611
aF0.44523642203684427
aF0.4895857631233941
aF0.4839172393552171
aF0.5116487185242186
aF0.4852552387234697
aF0.4896462978058251
aF0.49181885405239534
aF0.4851956219869675
aF0.48517235144122633
aF0.476051698103548
aF0.4976657744742277
aF0.47051670758760616
aa(lp166
F0.01005170691149516
aF0.019359473844081442
aF0.02843478721863477
aF0.012699541399763849
aF0.04010088622266945
aF0.05123414043432945
aF0.05621872216032956
aF0.05758793574411408
aF0.055669730126079696
aF0.04913797575194393
aF0.03856294269150589
aF0.026532932895525756
aF0.01742175356830244
aF0.011677275465148358
aF0.0
aF0.0
aF0.0
aF0.004393969547874054
aF0.009172799493788674
aF0.0039989523682213216
aF0.0
aF0.18052395949276265
aF0.30699892837766957
aF0.4459863691114044
aF0.47703100404893656
aF0.46883912116915516
aF0.45666539174265847
aF0.49024032348772256
aF0.5267834140922327
aF0.4727704181540162
aF0.4732872242477688
aF0.4912736779572988
aF0.5215351736763136
aF0.48217696253166037
aF0.4498694960841545
aF0.47582318860387307
aa(lp167
F0.0
aF0.001843802933816259
aF0.050584606156138474
aF0.03679459971934569
aF0.06406324571325804
aF0.07397493148704798
aF0.07530464564116086
aF0.07956168375201594
aF0.0768068222829043
aF0.07005897392859319
aF0.055027554397286634
aF0.04218185235664401
aF0.008534173157338079
aF0.022759304042106448
aF0.0
aF0.0
aF0.0
aF0.0078494512578647
aF0.0
aF0.028100995731423085
aF0.11296081417020476
aF0.21332022204681345
aF0.3288980005811654
aF0.4465328070067955
aF0.46578677270505625
aF0.4826006231065736
aF0.46166769258666723
aF0.4664956370422349
aF0.5016774768021707
aF0.4887495617374559
aF0.4783572546514603
aF0.4857237979646736
aF0.5009370488718278
aF0.48826728448718515
aF0.479123307665952
aF0.48019427824372385
aa(lp168
F0.06373591299922433
aF0.07193614834220476
aF0.0817522834589769
aF0.09823791151007433
aF0.10036084938607681
aF0.1065501448820217
aF0.1095190881789666
aF0.10991940659992343
aF0.10819054876570326
aF0.1027450605597479
aF0.08907155475363915
aF0.04778334970970796
aF0.05402892761652552
aF0.04094095667038406
aF0.04035583621631542
aF0.0
aF0.0
aF0.003321557612138034
aF0.0
aF0.04848087186319386
aF0.1744452095303981
aF0.26597107027375594
aF0.3500211086056548
aF0.43037804893513587
aF0.4745693983723171
aF0.4929725223223043
aF0.4925000444633609
aF0.5164433788657546
aF0.5221011787164292
aF0.5357588963211685
aF0.5373438866250474
aF0.5353360580829287
aF0.5057658301403757
aF0.4976188986429515
aF0.47884165408870083
aF0.5155673658122376
aa(lp169
F0.12473047542205051
aF0.12758349175891492
aF0.1342442595820905
aF0.1400823016492151
aF0.14512421129519745
aF0.14759516236878892
aF0.14941066753488294
aF0.1493811935454997
aF0.14787069661588625
aF0.14330998195128905
aF0.13311129092163887
aF0.12213175511463999
aF0.10942166441141617
aF0.03810252409213065
aF0.053541978225345815
aF0.06294280539581483
aF0.08828523346794544
aF0.07561376644843633
aF0.12406647500751926
aF0.1747959193037607
aF0.24426850076852516
aF0.3229616752759081
aF0.39667473623799826
aF0.4596292903643742
aF0.5039847385059418
aF0.5124389829665635
aF0.5518306702648791
aF0.5690872992628448
aF0.5833992538683682
aF0.5933477066988667
aF0.5996716171628548
aF0.5988007996393674
aF0.5938782092062594
aF0.5849196842937588
aF0.5826732506689153
aF0.5810217673957739
aa(lp170
F0.1844424431860073
aF0.1857595020969847
aF0.18836371080449732
aF0.19101403426593852
aF0.19332056881502477
aF0.19484778577731718
aF0.1960882418055037
aF0.19604474290298526
aF0.19498591185053807
aF0.19223272625820775
aF0.18862803609443105
aF0.18370098163502377
aF0.17244766413818383
aF0.16612980413774317
aF0.1663140034393823
aF0.1779506340068245
aF0.18732021025100995
aF0.20219880137432922
aF0.22727751550088146
aF0.26970945310143546
aF0.3244265053958681
aF0.3875455199673161
aF0.4523253291426345
aF0.5112156850817059
aF0.5570467369853573
aF0.592800086828464
aF0.6181699588598422
aF0.6392405421518993
aF0.6538621002279119
aF0.6655616834944179
aF0.6742544650735444
aF0.6797356409879494
aF0.6810237976960095
aF0.6783763498935023
aF0.6739841773141291
aF0.6713870466599351
aa(lp171
F0.24465707612725954
aF0.2447315121919775
aF0.2450003021526094
aF0.24483282773244505
aF0.24484183341249954
aF0.2445542437593039
aF0.24493397153292973
aF0.2450263519262725
aF0.24524404022664473
aF0.245108897314862
aF0.24579136905382848
aF0.24734705050684447
aF0.2507632000685702
aF0.2576743549286142
aF0.27535848853653044
aF0.295209198648104
aF0.2968510591070174
aF0.30327612568328166
aF0.3248422709113656
aF0.35520758164714245
aF0.3987190784081982
aF0.4543838551344573
aF0.5156908142855593
aF0.575763199127075
aF0.6289076667962615
aF0.6715341352137042
aF0.7018304681347699
aF0.7217324871018458
aF0.7351754392540495
aF0.7470138378042765
aF0.7584923031061764
aF0.7687432909243933
aF0.774235101842467
aF0.7764927517601133
aF0.7720198173493108
aF0.7701570011219744
aa(lp172
F0.30183723705278587
aF0.3010226804382985
aF0.2998142636303121
aF0.29766551545161346
aF0.2957809420843236
aF0.29361660578300425
aF0.2927760394650552
aF0.2928812526360149
aF0.2940989780379622
aF0.2961313762539069
aF0.3004327225382269
aF0.30835712627178957
aF0.3214497961444102
aF0.3351767714761828
aF0.3579442726057005
aF0.43551692609130327
aF0.3716664330022174
aF0.40410964474794425
aF0.41839953100750976
aF0.42614563271902034
aF0.4619592065450271
aF0.5163904232002215
aF0.580981750966862
aF0.6480186109133624
aF0.710281628238327
aF0.763319421693033
aF0.7953095244402943
aF0.8115676478281308
aF0.8171999482419139
aF0.8273439419655783
aF0.8449760688586617
aF0.8586961532941236
aF0.8720396367100326
aF0.871490856862181
aF0.8900495188549741
aF0.8598011928111097
aa(lp173
F0.3553214141152603
aF0.35359012648546245
aF0.35060414032233217
aF0.3452956013814104
aF0.3416297159763609
aF0.3379117982339522
aF0.33597089910483735
aF0.3360755995760629
aF0.33847050778385374
aF0.34235814233741135
aF0.34924797564092763
aF0.3604775011391315
aF0.37981543877159657
aF0.4151222592656797
aF0.4053733267321551
aF0.43154967418193796
aF0.4763991112238421
aF0.47070727023931946
aF0.4702694099245444
aF0.47631418981665824
aF0.5089853965316974
aF0.569499924355889
aF0.6417679832147062
aF0.723181785662265
aF0.8018868936621808
aF0.8644503687403197
aF0.9242636139310562
aF0.8939972412358618
aF0.8893238557800055
aF0.900861015599204
aF0.9158767569430347
aF0.9740596050502625
aF0.9491734450590444
aF0.9928157763110569
aF0.9394061551438444
aF0.9323933782927618
aa(lp174
F0.39599986496071304
aF0.42045650846067606
aF0.3934132906152185
aF0.3853379815427622
aF0.38274169535018604
aF0.3757017943213619
aF0.37338688433861517
aF0.3738120534821845
aF0.37715174933809376
aF0.38250715620905296
aF0.39065846600041626
aF0.4037305993979334
aF0.4201199677164264
aF0.46142141960037425
aF0.44956185878260474
aF0.4842535285466963
aF0.4670772389992783
aF0.467674312121043
aF0.4890824352228737
aF0.4725616082617019
aF0.5422607419559339
aF0.6104860443517662
aF0.6925521838654282
aF0.7834999626973022
aF0.9152034901834931
aF0.9988318747492275
aF1.0
aF0.9574618585427053
aF0.9415830571733097
aF0.950956848286741
aF0.9607578239196339
aF1.0
aF1.0
aF0.9945325493779907
aF1.0
aF0.9715093886653028
aa(lp175
F0.4199405852569635
aF0.4269330003507814
aF0.4244729208968185
aF0.41918537985381876
aF0.4134795972859253
aF0.4057114540008353
aF0.40298763083437766
aF0.40367708355911547
aF0.4076717382892631
aF0.416296897228253
aF0.42690706566405034
aF0.4388945878963188
aF0.45708344272346985
aF0.4903687269178569
aF0.4892791530943522
aF0.47586322471860143
aF0.48014810118700435
aF0.485702842711003
aF0.48609697322648304
aF0.5115446087877964
aF0.5610857252683421
aF0.6408845179314079
aF0.7308011415377065
aF0.8264163798070422
aF0.9160997834520689
aF1.0
aF0.9730319589250764
aF0.9814311141007638
aF0.9749571981500954
aF0.9737454973166769
aF0.9776661334200155
aF0.9888716078582931
aF0.985799749546365
aF1.0
aF1.0
aF0.9834470463537359
aa(lp176
F0.44205167302100196
aF0.4448550615156806
aF0.46984645763129046
aF0.44279104750905635
aF0.43376205963387143
aF0.42850221567776653
aF0.42561014774556044
aF0.42587217083392076
aF0.43135892707043005
aF0.4383263779679982
aF0.46699754337934335
aF0.4730571965424231
aF0.4717459185087991
aF0.49714178207680926
aF0.47687829468897003
aF0.4742076411309073
aF0.5133023024835224
aF0.49319792558952236
aF0.48906923666829494
aF0.4925920438238318
aF0.571590779902429
aF0.6597407930306903
aF0.7586223899301991
aF0.8508496506376227
aF0.9319514707661941
aF1.0
aF1.0
aF1.0
aF1.0
aF0.988555267159234
aF0.9892924727438533
aF0.9905210097278028
aF1.0
aF1.0
aF1.0
aF0.9909022351709078
aa(lp177
F0.4552581785457981
aF0.4584445044278714
aF0.457066136987005
aF0.45587548135904865
aF0.44972760383371674
aF0.4452861358923321
aF0.4423382370178948
aF0.44198155084037766
aF0.4437239498916443
aF0.4520383147764661
aF0.45575684401811123
aF0.4637576462978081
aF0.4747413811748809
aF0.4787352413100084
aF0.4776516230693935
aF0.48267562066045766
aF0.48322164406393875
aF0.4874466017289399
aF0.49110140052081985
aF0.47580300097381434
aF0.5767369388183935
aF0.6658024067219009
aF0.7713522297697463
aF0.9032737737275756
aF0.9381049150982871
aF1.0
aF0.9930650815424479
aF1.0
aF0.9962732016217527
aF0.992290393841488
aF0.9923857333876921
aF0.9942343646162318
aF0.9954470668211791
aF1.0
aF1.0
aF0.9977716501571273
aa(lp178
F0.46286084177862175
aF0.4628498100403031
aF0.463310008989962
aF0.46485675300124707
aF0.46188578152880516
aF0.4591047087459357
aF0.4550826976655808
aF0.4538849232399553
aF0.4561665199520839
aF0.4599411986885033
aF0.4623148926898792
aF0.4733024978345241
aF0.47357677442096513
aF0.48010719649522476
aF0.47784833394803167
aF0.5097307157388223
aF0.48233741199981656
aF0.520446604292017
aF0.48855558883026123
aF0.5441470982195097
aF0.5322360888337555
aF0.6731177803938211
aF0.7758203521270736
aF0.8639719359892317
aF0.9370154757427706
aF1.0
aF0.9722222222222222
aF1.0
aF0.9959843106647526
aF0.9944834391310908
aF0.9942527115547869
aF0.9949852588982564
aF0.9965197143674914
aF0.9979742342783133
aF0.9989841930004794
aF0.998938987823383
aa(lp179
F0.4678779075750825
aF0.46725226118034335
aF0.4681650958662488
aF0.47100160444115374
aF0.49044982736775583
aF0.46856702398030264
aF0.4642527538226917
aF0.4633278857375261
aF0.46438859998402077
aF0.46773934202930967
aF0.4759873801405959
aF0.4990288904473664
aF0.4824075686897799
aF0.47884448426321286
aF0.47954069568385277
aF0.47423347889462897
aF0.4939801088658106
aF0.49590250940990166
aF0.49615806638508847
aF0.5392869320107924
aF0.601124474964169
aF0.6809400979059982
aF0.775802069549853
aF0.860286013811427
aF0.931755202968518
aF0.9855844296439195
aF0.9904584414762364
aF0.9908064470803678
aF1.0
aF0.9950949810314
aF0.9957578075024047
aF0.9972196751078991
aF0.9974929187606628
aF0.9983000146835178
aF0.9988905337477422
aF0.9990157274206997
aa(lp180
F0.47007482534460143
aF0.4703020300494863
aF0.47119906166321607
aF0.47405253888344406
aF0.4741728060986797
aF0.4734124244984404
aF0.4698849734087711
aF0.4699813447807513
aF0.4708028829676056
aF0.471473218634927
aF0.4725289119075973
aF0.5022116457944524
aF0.47742135400448643
aF0.47585077318623203
aF0.48459653367012473
aF0.4820190062879222
aF0.49487279189973404
aF0.49441560239125976
aF0.4985711506028429
aF0.5459224056602334
aF0.6099033520935787
aF0.6930084651979592
aF0.7798923165377153
aF0.8621863194283529
aF0.9304193077202404
aF0.9954360850292745
aF0.9895943750753515
aF0.990824224809776
aF1.0
aF0.9967876658349052
aF0.9966889496297551
aF0.9978431299550996
aF0.9986305114391566
aF0.9988693609445862
aF0.999001494951658
aF0.99882459943016
aa(lp181
F0.472242029437701
aF0.47240895328549554
aF0.4729941690538862
aF0.473588080206095
aF0.47387822315666184
aF0.47330423229424506
aF0.47282610268040665
aF0.4727799245144983
aF0.4734682893890969
aF0.4743357207906825
aF0.4750922531117761
aF0.4768160315987015
aF0.4772231244167035
aF0.47584042623959233
aF0.5087173933226213
aF0.5150683265354615
aF0.5113375256122265
aF0.49449528708670165
aF0.5001876033730152
aF0.5169033150209698
aF0.6087820993168391
aF0.6977817587817373
aF0.7859787382466857
aF0.8672522173790392
aF0.9423521096855415
aF0.9814437579489685
aF0.9918698053929278
aF0.990050399422226
aF0.9941781832700336
aF0.9956000860989546
aF0.9970806234081345
aF0.9980228991901378
aF1.0
aF0.9986022579959002
aF1.0
aF0.9985196477544583
aa(lp182
F0.4740549960751352
aF0.47409927690889636
aF0.47402298259521003
aF0.4743499162016018
aF0.47439981719176716
aF0.4743382420429325
aF0.47370967755825655
aF0.47497476049161724
aF0.4758399594217522
aF0.4768165159641054
aF0.4781396556605529
aF0.4789769174680117
aF0.4805981638365125
aF0.4852029780086789
aF0.4800526025069773
aF0.48840135801729007
aF0.48967182918520447
aF0.4894385898317521
aF0.47860608160006135
aF0.5052120295990739
aF0.6076529543477144
aF0.700052062003154
aF0.7947870916024828
aF0.8770242262690097
aF0.942555757516848
aF0.9966850177403483
aF1.0
aF0.9906431733183618
aF0.9938661831901391
aF0.9958832626122501
aF0.9971923974937379
aF0.9984824422732123
aF0.997800751964165
aF0.9981724274638882
aF1.0
aF0.9982746890168087
aa(lp183
F0.47580498287501577
aF0.4756158609974202
aF0.47560181397010887
aF0.47533172805222806
aF0.47547879938605275
aF0.47555381015903336
aF0.475968186472709
aF0.47670087548699963
aF0.47778097377987483
aF0.478831963572564
aF0.48029823653504017
aF0.48132485502463096
aF0.48272757851446135
aF0.48807135488685033
aF0.4901345579946743
aF0.49037670240636344
aF0.4871083998759819
aF0.4862054086384966
aF0.4704436996246994
aF0.5355607865402451
aF0.608105033130305
aF0.7010189180625672
aF0.7994517354446824
aF0.9206711010804064
aF0.9493839085934869
aF0.9974783691950716
aF0.9900003336517971
aF0.9929582258512536
aF0.9951409663662137
aF0.9966582856280167
aF0.9974362225839459
aF0.9980012340873649
aF0.9949634814242919
aF0.9954166934443934
aF0.9949104052122758
aF0.9980637172966631
aa(lp184
F0.47773266187047225
aF0.47749603333710455
aF0.47732942840748116
aF0.4769556810211532
aF0.4768422188397064
aF0.4769563951583807
aF0.477377511708654
aF0.47818006665869167
aF0.47931177762258464
aF0.4808712141521286
aF0.4809144689492133
aF0.48229382710366675
aF0.48686845042766974
aF0.5130914853600994
aF0.4877498553965936
aF0.48987088420883135
aF0.4917244584314646
aF0.4856934340766763
aF0.4973159404943821
aF0.5318559374713948
aF0.6031257621068716
aF0.6984491237413427
aF0.8031738675946426
aF0.8957189447273228
aF0.959840578990112
aF0.9999280195366095
aF0.9921570651885147
aF0.995773401822142
aF0.9974491825837505
aF1.0
aF0.9984361032143462
aF0.998992014359438
aF1.0
aF0.9722222222222222
aF1.0
aF0.9972538174335854
aa(lp185
F0.47911686062701103
aF0.4806460781557307
aF0.47870954500752355
aF0.47841050530181345
aF0.47823566120595246
aF0.4781460197140747
aF0.4783759072482619
aF0.47919819392296414
aF0.48054291558348056
aF0.4818098754315741
aF0.48141525589091666
aF0.47955161572661376
aF0.4845683950593334
aF0.4836241416472393
aF0.48811211547142713
aF0.4853687331235943
aF0.4992791374617853
aF0.510329518776455
aF0.48360139570323907
aF0.48373483254507754
aF0.5916808646316389
aF0.6936475270988333
aF0.796032594169931
aF0.9192209831567117
aF0.9952590650789909
aF1.0
aF1.0
aF1.0
aF0.9983339407702109
aF1.0
aF1.0
aF1.0
aF1.0
aF1.0
aF1.0
aF0.9937238966825991
aa(lp186
F0.4798513143873218
aF0.47985780684938417
aF0.4791483036881554
aF0.4797735245289693
aF0.47945587318421157
aF0.47852505334924095
aF0.47905888738056107
aF0.47982318441374483
aF0.48083444552767923
aF0.48216976651777266
aF0.48087869349002865
aF0.48155743543141805
aF0.45675470443764865
aF0.48909352432454867
aF0.4868707054334387
aF0.4631676970801179
aF0.5113774846886353
aF0.5220587349798952
aF0.49876266171993544
aF0.4617614320833805
aF0.5877981307002559
aF0.6882418947310347
aF0.7894135418843816
aF0.8799667401188925
aF0.9467186188631064
aF1.0
aF0.9722222222222222
aF0.9959248316719348
aF0.9982765143570623
aF1.0
aF1.0
aF0.9997501111162507
aF1.0
aF1.0
aF0.9722222222222222
aF0.9885992914582703
aa(lp187
F0.47976070272938975
aF0.479774984279535
aF0.48009875639935795
aF0.4803903655339667
aF0.4800019020846211
aF0.47875126071433693
aF0.47926931280532703
aF0.4801469640807491
aF0.48099017801383687
aF0.48143070177215197
aF0.4807671719258848
aF0.4757038757386508
aF0.476471079021601
aF0.4778706069360777
aF0.47936334872036557
aF0.47941522442170936
aF0.48178480483174146
aF0.4839331401880635
aF0.489006329721906
aF0.5233866357505952
aF0.5874489136671572
aF0.6858964718774052
aF0.7825822651275443
aF0.8679163404639527
aF0.9343312535887092
aF0.970485322558436
aF0.9945848400558535
aF0.9922715448664263
aF1.0
aF0.9993324815228668
aF0.9996393248247011
aF0.9995441589884386
aF0.998331074082093
aF0.9923106365725463
aF0.9909833372010597
aF0.9844679630167557
aaa(lp188
(lp189
F0.009164712159241814
aF0.0
aF0.0
aF0.021087164191417748
aF0.05485809233278941
aF0.11782501773062255
aF0.1924832493798933
aF0.26591831604664595
aF0.32852603144051473
aF0.35586228255845154
aF0.3562455160055715
aF0.3501858290374684
aF0.3674554088293779
aF0.32650754702290374
aF0.3434886683468193
aF0.35022450328162935
aF0.35950459872009854
aF0.3748337794396257
aF0.38797097615769394
aF0.40967648626322817
aF0.44366503097559673
aF0.4878236396821243
aF0.5229751913808879
aF0.5516315134037868
aF0.5761964838222732
aF0.596919451521974
aF0.6076786190087816
aF0.6153998423480598
aF0.6210675099759264
aF0.6244417833159053
aF0.6218308705074319
aF0.6271568339576765
aF0.626613263260118
aF0.6507989558220287
aF0.5996730616629233
aF0.623848658476488
aa(lp190
F0.001862836466048342
aF0.0
aF0.0
aF0.0
aF0.03198114631563105
aF0.120803525463409
aF0.1926929121406602
aF0.26780626167300103
aF0.38875656234365674
aF0.3593511764697435
aF0.3425606192460942
aF0.34393875137068747
aF0.36696705115813477
aF0.34945765247353916
aF0.34595991260723147
aF0.3456506869914895
aF0.3568756103852045
aF0.37460250195871597
aF0.39012052030933825
aF0.37464298468866475
aF0.44792741442898176
aF0.4889907088177896
aF0.5233641877250129
aF0.5517601290290113
aF0.5755523200991421
aF0.6006526229398997
aF0.6071472369628691
aF0.6156486618249151
aF0.6213579977615254
aF0.6244394836433648
aF0.6310456501903832
aF0.62915058787162
aF0.6272667063380822
aF0.6165128664984199
aF0.6446388306136714
aF0.625927567286332
aa(lp191
F0.00019279194928008888
aF0.0
aF0.003994873272185677
aF0.0
aF0.06633491929356737
aF0.12170106354273304
aF0.19294382496005205
aF0.26379015589241667
aF0.31340584163490487
aF0.3414291176004846
aF0.3385767023257602
aF0.3767639565522146
aF0.35562097807980986
aF0.3709386124285815
aF0.32379564603870353
aF0.34838190401738994
aF0.3564960064649934
aF0.37719786633404734
aF0.4003494363295809
aF0.4207013952490311
aF0.45268525055068615
aF0.49169870008530125
aF0.5240537511236231
aF0.5514362758883142
aF0.5772781705269384
aF0.5924125186896299
aF0.6078483380794704
aF0.6176009306294041
aF0.6229896336270019
aF0.624911378594544
aF0.6250886635260863
aF0.6244011870766263
aF0.6003248091477908
aF0.6266120951141155
aF0.6000294771993246
aF0.6122242380654789
aa(lp192
F0.00023710116353340685
aF0.0
aF0.014432682234275906
aF0.03887817208313448
aF0.04998831964232532
aF0.12949812278631256
aF0.19314586507987877
aF0.25253973535991175
aF0.29963803106140974
aF0.3322853825420469
aF0.3568853986373713
aF0.3726611573901332
aF0.35408983437905867
aF0.37222516674240375
aF0.35124581378824965
aF0.3506686286631429
aF0.35818601160435654
aF0.38018211638233373
aF0.4034211011449975
aF0.43079770864865313
aF0.4615883929666982
aF0.49400204370060735
aF0.5242865551072903
aF0.5505747890481695
aF0.5723989016826255
aF0.592412010786846
aF0.602909502951813
aF0.6124520007815786
aF0.6193057936650621
aF0.6238146975027635
aF0.628989676377914
aF0.6236634015342228
aF0.6286679426195015
aF0.6001521572754542
aF0.6212791627766365
aF0.6144112839126629
aa(lp193
F0.0012521789134884726
aF0.0
aF0.022721929285030414
aF0.04983316111774052
aF0.08522124037473182
aF0.13457837308157342
aF0.19398929338828266
aF0.24957483693787785
aF0.2956008465306394
aF0.3290781929015236
aF0.357465286120569
aF0.3421450153935706
aF0.3519813381662664
aF0.34572625269738433
aF0.3539469880475999
aF0.3554379619797869
aF0.36476554743006956
aF0.3823198023596779
aF0.4063288060910246
aF0.43457356014363135
aF0.46496076401432557
aF0.49566710556940996
aF0.5242045295817209
aF0.5492559315058742
aF0.571645692418969
aF0.5892763535907353
aF0.5997698997928346
aF0.6094220220556114
aF0.617081536465102
aF0.6229500347912865
aF0.6260269486494038
aF0.6275659126662311
aF0.6248969565424315
aF0.6242489719387755
aF0.6570983610925456
aF0.635604185711606
aa(lp194
F0.0014173859874001863
aF0.00470093569702347
aF0.02204311462994846
aF0.05185404640200431
aF0.0927595765100681
aF0.1412762748813373
aF0.19541940242154635
aF0.24862689697558896
aF0.2941580237474632
aF0.3346094034261929
aF0.34667307679545173
aF0.3568698806298806
aF0.3466333837415239
aF0.3534568928051518
aF0.3523180244407336
aF0.3575896795939948
aF0.3675042088769729
aF0.3848542691687284
aF0.40870554522035446
aF0.43681045824406284
aF0.4668919004965049
aF0.4966520776794369
aF0.5243326091863906
aF0.5485245301089062
aF0.5694645124270684
aF0.5844837772824404
aF0.5974080584895548
aF0.6080023863426606
aF0.6153494703452647
aF0.6214586577680764
aF0.6277264696356891
aF0.6272912989789421
aF0.6289149617515094
aF0.6352180753264148
aF0.6519427041339256
aF0.6334368847391308
aa(lp195
F0.0013131098920319852
aF0.0
aF0.0
aF0.05182725203487413
aF0.09487736410446466
aF0.14422995320669665
aF0.19656955968191392
aF0.2483858152491363
aF0.2943078452766972
aF0.3311028291059485
aF0.34219724533505486
aF0.362701169840417
aF0.34971723604884647
aF0.3479239674253653
aF0.3532738085685527
aF0.35932996422624536
aF0.37053367237425405
aF0.38826132244210837
aF0.4084791905531342
aF0.43945500750096994
aF0.46909976562349026
aF0.4984131924170015
aF0.5256250056653209
aF0.5490314230460002
aF0.5685266901760389
aF0.5833060750260223
aF0.5957008892683816
aF0.6057918223094517
aF0.6141037948434227
aF0.6210720335564237
aF0.6238194395344695
aF0.6261773292425971
aF0.6290393034654675
aF0.6343674122255823
aF0.6352783448411602
aF0.6385168157463306
aa(lp196
F0.0006458139225724805
aF0.0
aF0.017334786787260557
aF0.04841306909364879
aF0.09861931805513312
aF0.14522854593971443
aF0.19771492810533245
aF0.24892218960184223
aF0.2947579506598977
aF0.3387849276652595
aF0.34539528464751484
aF0.35860865610318404
aF0.3254663986607173
aF0.3497161154353416
aF0.3535943345425925
aF0.36114027035608487
aF0.3741400646378907
aF0.39178196586032804
aF0.4148168903821856
aF0.4419161655583134
aF0.47198532604461324
aF0.5017311993334808
aF0.528864798520358
aF0.5516260591339172
aF0.5698527721082968
aF0.5842465906755873
aF0.5960515954781439
aF0.605611945322424
aF0.6132738402738775
aF0.6208854960842238
aF0.6200388675286447
aF0.6242327394218795
aF0.6272550242782297
aF0.6329208030711918
aF0.6354897563372243
aF0.6370815138581966
aa(lp197
F0.00044478654266201463
aF0.0016090060840316658
aF0.0
aF0.045082742122855506
aF0.09159486834358166
aF0.14600840177202512
aF0.19914620209917225
aF0.25034251541782604
aF0.29499903079514733
aF0.33777131241904984
aF0.34763248852494183
aF0.3675006763678577
aF0.3437532510670051
aF0.35046700303287986
aF0.3498025999117274
aF0.3629115370273189
aF0.3759706927759519
aF0.39527692155827526
aF0.41349918446789635
aF0.4414977130351106
aF0.475257655693206
aF0.5063430350278463
aF0.5337228099688461
aF0.5580925091143548
aF0.5734293682219311
aF0.587088270486729
aF0.5985553532009663
aF0.6072821800812589
aF0.6137718783463734
aF0.6178163701660048
aF0.6206702629192922
aF0.6233312967121556
aF0.6266480326785371
aF0.6243980631947025
aF0.6532874493367893
aF0.6294555638349076
aa(lp198
F0.0003514669660043721
aF0.0
aF0.0
aF0.021953596073562384
aF0.09121833196911176
aF0.1465270831348416
aF0.20101270144477199
aF0.25192093944092525
aF0.3002416385400975
aF0.3238020817455749
aF0.34084997395139977
aF0.38191466595565815
aF0.34880591252574517
aF0.3534680365103637
aF0.3566203181781218
aF0.3605384724707473
aF0.3777870319672921
aF0.3903460627864148
aF0.39006551780213544
aF0.4426449699502888
aF0.4787649778878697
aF0.5116243505533143
aF0.5396002614511054
aF0.5617737399842868
aF0.5786128801229623
aF0.5916115659368307
aF0.6024406000506769
aF0.6109887067848753
aF0.6176160394785613
aF0.6172071306609553
aF0.6217229059964097
aF0.6243708412275123
aF0.6271075465508219
aF0.6333795974720499
aF0.6347822659730018
aF0.623053820421177
aa(lp199
F3.5906252497282056e-06
aF0.0015503411604600376
aF0.0
aF0.044317318513554214
aF0.09209542238741354
aF0.1480632355505703
aF0.20263814389088353
aF0.2537317912206743
aF0.2961881222208122
aF0.3266409395890377
aF0.3349762382990944
aF0.3547529327783125
aF0.37338422801105126
aF0.3578679162517647
aF0.3587427213830973
aF0.36145266535258486
aF0.3755958372000269
aF0.3900975066327658
aF0.4135086983634218
aF0.4451921712888103
aF0.4829341964993074
aF0.5168196127020845
aF0.5453585811674143
aF0.5677285116917483
aF0.5846340165269099
aF0.5975549200443755
aF0.6077929764266994
aF0.6155555647402478
aF0.6205951966522173
aF0.6230915697743608
aF0.6249589848901992
aF0.6271777911498403
aF0.6290444642346604
aF0.6319433474010676
aF0.6251490164141211
aF0.6226070258373275
aa(lp200
F0.00021251688938131433
aF0.0
aF0.01348298664081944
aF0.04422612259177514
aF0.09623253367831809
aF0.14759358474600306
aF0.20361472581857062
aF0.2569994673181423
aF0.2996002341544608
aF0.33870036238427814
aF0.3678755099622872
aF0.3569773218439603
aF0.3595461637971857
aF0.36009870636804203
aF0.3577822854480637
aF0.36360484194371084
aF0.37595108112248266
aF0.39479446436684884
aF0.41991707585638083
aF0.4530657406328256
aF0.48923731362217304
aF0.5235291346374216
aF0.551931101845315
aF0.5746960717366357
aF0.5919848431017716
aF0.605715664628763
aF0.6158060365790511
aF0.622915801993985
aF0.6269732112614813
aF0.6286811062120479
aF0.6283384872181159
aF0.6312745985638343
aF0.6333389760579418
aF0.6253760478300076
aF0.6024984976492889
aF0.6256545266001138
aa(lp201
F0.00015488394663539892
aF0.0
aF0.0
aF0.021782219261586515
aF0.09107868579274535
aF0.13336495579592117
aF0.21018882076186265
aF0.26339530062943256
aF0.3054279563922903
aF0.3366109236783412
aF0.3534845777918611
aF0.36891025706947783
aF0.3825090611161827
aF0.3420355294011279
aF0.35812259560779625
aF0.36426289998397215
aF0.38068254263624657
aF0.3976048473655156
aF0.4269698305641461
aF0.4630416334658613
aF0.49902313011039184
aF0.5322375693865645
aF0.5609633294218673
aF0.5839508747461121
aF0.6019935843925626
aF0.6157228512081208
aF0.6290000835384176
aF0.6326289952471953
aF0.6361137862337992
aF0.6373182581560567
aF0.6353574907823852
aF0.6356290702359462
aF0.6373260301468423
aF0.6329313421290398
aF0.613572050158098
aF0.6273983173903589
aa(lp202
F0.0009200503678687214
aF0.0
aF0.0
aF0.04861642829709099
aF0.07802380182939984
aF0.164179334991574
aF0.224640768386582
aF0.2755584180484541
aF0.31035599249326234
aF0.34579991530991444
aF0.3725421913304718
aF0.3409879374566737
aF0.322173855793721
aF0.3593684611129932
aF0.3546121298710245
aF0.3614089354974655
aF0.3647799550090653
aF0.38870643177696157
aF0.4431496003094945
aF0.4747965868534137
aF0.5122420959784976
aF0.5455082551219991
aF0.5738869393586464
aF0.5983428765834148
aF0.6151612291781339
aF0.629138986588619
aF0.6389060363890624
aF0.6442961206271115
aF0.6486773635129981
aF0.6493904953740279
aF0.6466735699696937
aF0.6441806618572402
aF0.6373654382819864
aF0.638128771867731
aF0.6008374094178301
aF0.6387866452477711
aa(lp203
F0.004827444991856747
aF0.0
aF0.0
aF0.0706021007400439
aF0.13283442652003605
aF0.19197810666213322
aF0.2501939022089335
aF0.29548279048145193
aF0.3232033373352554
aF0.32016292501992677
aF0.36103721351781
aF0.35830281557090876
aF0.34025299816323173
aF0.33356618979804425
aF0.3632612138914661
aF0.3577123809394079
aF0.3506789333048233
aF0.42745863578900284
aF0.43788710965804717
aF0.4937198797625668
aF0.5304441177404366
aF0.5630985522404939
aF0.5910601905295553
aF0.6143601176043217
aF0.6321816529512514
aF0.645750812810888
aF0.6557978878194201
aF0.6605251794214846
aF0.6642529398262285
aF0.6672830216774513
aF0.6620129861156946
aF0.6529518017637089
aF0.6480180589059495
aF0.6092448935770589
aF0.6185514822195388
aF0.6469067406707955
aa(lp204
F0.02353987137909331
aF0.0
aF0.02697086358235215
aF0.11289950348541855
aF0.17402288666074153
aF0.2316253407192844
aF0.280690695618449
aF0.32871453413058743
aF0.355592362735742
aF0.3423617927100168
aF0.36122914600118244
aF0.36883942743399944
aF0.33070033262351933
aF0.36841307375546045
aF0.39276849417207194
aF0.37953144325444577
aF0.40532028292046857
aF0.44671190619216744
aF0.48391891128135334
aF0.5178426902301841
aF0.5535013150961211
aF0.5846926948625666
aF0.6116996452190925
aF0.6353592109754568
aF0.6530398148639454
aF0.6674928901841749
aF0.6786249221402342
aF0.6864531685359414
aF0.6917852901382807
aF0.692905684963339
aF0.6872311259941831
aF0.6573252325703478
aF0.6408494073030484
aF0.6381948772809842
aF0.6163330518097159
aF0.6925713703486109
aa(lp205
F0.0890213006407784
aF0.008813443231266926
aF0.11933735412029989
aF0.16984334950901184
aF0.22214493227125884
aF0.27077436785621994
aF0.3169472202891301
aF0.35564162731584803
aF0.36403745577245955
aF0.40939065332477415
aF0.42128006014919245
aF0.35945625115207686
aF0.3798422829007246
aF0.43655095303037195
aF0.44658308736317576
aF0.45536823280902056
aF0.46793035667017985
aF0.49063525988534673
aF0.5187535003556651
aF0.5496256981032174
aF0.5802590068892663
aF0.6092659150280958
aF0.6352678319298976
aF0.6580606469563312
aF0.6777490281640399
aF0.693989792140577
aF0.7072933679474264
aF0.7171084783302027
aF0.724086472621905
aF0.7269151373604091
aF0.7233684252243845
aF0.7139615699366705
aF0.6984797174392402
aF0.6499902809958772
aF0.6237118988235694
aF0.6888659225967526
aa(lp206
F0.21035812505423482
aF0.20416410796120724
aF0.2016386338997212
aF0.24054505785703748
aF0.2740501886591598
aF0.3143502170555486
aF0.3568643363317971
aF0.397452750358573
aF0.44453845914785406
aF0.4832339380363127
aF0.500517329703967
aF0.5046144653282502
aF0.5018718440589932
aF0.5090165636301508
aF0.5098017869754714
aF0.513367654056135
aF0.5207652783790365
aF0.5348600464603256
aF0.5558192135566373
aF0.5814869532639951
aF0.6085755198981485
aF0.6352490947295424
aF0.6604322280575797
aF0.6837026555721217
aF0.7049668966997095
aF0.7236569066632206
aF0.7394567437070405
aF0.7515662819865955
aF0.7606257629792887
aF0.7663256636073402
aF0.7690846165942283
aF0.7680738198899603
aF0.7612813260455438
aF0.7523384209813276
aF0.7581506318857233
aF0.7528402268321654
aa(lp207
F0.31371749334752463
aF0.3707301902442582
aF0.3237778461255075
aF0.30006214912617907
aF0.3222967384786058
aF0.3592642556213183
aF0.39658861796780864
aF0.44588538433454494
aF0.5000892306370485
aF0.5986185089536836
aF0.6248770142588063
aF0.6007437584123431
aF0.6475991765026213
aF0.5753331442345179
aF0.5651769393716811
aF0.5636618008591096
aF0.5641836039986093
aF0.5740331992543718
aF0.5907077480991482
aF0.6123220636457579
aF0.636249425270964
aF0.6611901387997197
aF0.6859205029105708
aF0.7098827655059358
aF0.7327173018006413
aF0.7536883199416325
aF0.771787423319478
aF0.7862741060729125
aF0.797712670709584
aF0.8071607834877735
aF0.814926508784088
aF0.8216136594431811
aF0.8308371595638332
aF0.8457475515585641
aF0.8440385957304478
aF0.8442991812835133
aa(lp208
F0.33424248328919726
aF0.3208923480755958
aF0.3380166266618774
aF0.34318856763720973
aF0.35965215505002734
aF0.3900252522578512
aF0.4306336463413895
aF0.4801972025177159
aF0.5619695048784417
aF0.5863402960884921
aF0.6501337503847432
aF0.6325927509116852
aF0.6122402547376381
aF0.6119587501691797
aF0.6276880483448887
aF0.5981963309391299
aF0.5969394823703443
aF0.6058699312178613
aF0.6217859525909509
aF0.6388068910846574
aF0.66124829596213
aF0.6856167531030142
aF0.7104986598570382
aF0.7351659051899823
aF0.759059738852302
aF0.7814857231248499
aF0.8015808604251281
aF0.8182216666395031
aF0.8340540454319001
aF0.8455319886710635
aF0.8612327896600176
aF0.8701126225976793
aF0.8868380063066463
aF0.9313668712762216
aF0.940168721344693
aF0.9205978666906572
aa(lp209
F0.3432479090199955
aF0.350316584446211
aF0.35515024248985
aF0.3642698289702033
aF0.3822334509432723
aF0.4152175020727768
aF0.45522888383585475
aF0.5028292853949413
aF0.5484035904731842
aF0.5907437270789818
aF0.6142736538515607
aF0.6018388648084987
aF0.6000574090746426
aF0.6277982310364242
aF0.621914728692238
aF0.6205898156810554
aF0.6195037439986701
aF0.6272330958834346
aF0.6410929914706763
aF0.659682722828996
aF0.6822106060242086
aF0.7073397364899718
aF0.7331862852636832
aF0.7585738914511247
aF0.7829778261235512
aF0.8065830305492554
aF0.8276794680474461
aF0.8501869372287536
aF0.8626267369531616
aF0.8810303068303554
aF0.896075584577514
aF0.9102918463613497
aF0.9259258280460875
aF0.9480794801787931
aF0.9807867666862347
aF0.9651095707645068
aa(lp210
F0.3525611906759473
aF0.35415289283980766
aF0.3693200780741312
aF0.35342272926848356
aF0.39740975403519624
aF0.4324249385567704
aF0.47192970621003333
aF0.5138255383698177
aF0.5552531902470347
aF0.5893258079133483
aF0.6225191236830107
aF0.6071408019269996
aF0.6446777205061507
aF0.6515912790745517
aF0.6313480577463122
aF0.630263807776864
aF0.6346805098483478
aF0.6430831298460097
aF0.6548247118746092
aF0.6734624419254747
aF0.6971977939394464
aF0.7259447944665602
aF0.7532279561372444
aF0.7793529692122227
aF0.8039804422252018
aF0.8277494838506466
aF0.8551865207203334
aF0.8690516765845686
aF0.887418219445701
aF0.9069551515475677
aF0.9466137677874574
aF0.9363444427814992
aF0.948315304318308
aF0.96616768028914
aF1.0
aF0.9840119061747098
aa(lp211
F0.3471081770976139
aF0.36062941654281705
aF0.3606882885959726
aF0.3779361039158058
aF0.4082485644841922
aF0.44322589520273326
aF0.48196563108679463
aF0.5226232956137005
aF0.562613268599684
aF0.6029390544172332
aF0.6136911626575362
aF0.614024354846272
aF0.6044696359858923
aF0.6278963317106175
aF0.6327238750312497
aF0.6384357308181952
aF0.6449413992232097
aF0.6548131040437021
aF0.6668028223638504
aF0.6682184319969404
aF0.7107572051282548
aF0.7411702594694393
aF0.769849568822909
aF0.7969893633904261
aF0.8221796921425119
aF0.8465046773198336
aF0.8684186824910469
aF0.888632101779257
aF0.9068907343127264
aF0.926054366202247
aF0.9398848303573102
aF0.9513235061550293
aF0.9625318027603503
aF0.9770508306421548
aF1.0
aF0.9893830907176762
aa(lp212
F0.3438252512349127
aF0.3509108657984276
aF0.3343745658386042
aF0.3842714294188075
aF0.4149630211462017
aF0.448808311357225
aF0.4875970014159093
aF0.5280008568709711
aF0.5679719590765466
aF0.6105647182321622
aF0.6011168116185662
aF0.6302987680716751
aF0.6305327618741189
aF0.628945067876579
aF0.6356799709443091
aF0.6428324228885081
aF0.65140530454181
aF0.6633784257621084
aF0.6770530983949875
aF0.6964140244373519
aF0.7223101323107305
aF0.7536981756695599
aF0.7832546960866895
aF0.8118631625423997
aF0.8376253757300689
aF0.8626177231716229
aF0.8855878339321932
aF0.9078890864508485
aF0.9249447795933551
aF0.9387232615961887
aF0.9503584169458893
aF0.9612766916667258
aF0.9725939439534687
aF0.9819361202399288
aF0.9890791699895569
aF0.9929448356943648
aa(lp213
F0.33588999074157105
aF0.3232180218357979
aF0.35853831926629426
aF0.3778866530372425
aF0.4143722693733897
aF0.4516093728465303
aF0.4907874345679298
aF0.5309630716716424
aF0.569885072079822
aF0.6082213221385936
aF0.6270107117468396
aF0.6258318874806327
aF0.628783958490904
aF0.635567599548004
aF0.6347144132613193
aF0.6416677308546976
aF0.6549436792368962
aF0.6688616094222133
aF0.6853156622143025
aF0.7070693758776679
aF0.733763252184673
aF0.7639017077004652
aF0.7941426287297336
aF0.8233920979578868
aF0.8510881479062045
aF0.8771141228541065
aF0.9042973217395104
aF0.9256118517577604
aF0.9565743666474288
aF0.9503167035518149
aF0.9591026910379356
aF0.9686783291494679
aF0.978584998081487
aF0.9849103207180915
aF0.9935672893814776
aF0.9919245935665012
aa(lp214
F0.33112971639577554
aF0.3281066682427013
aF0.3283408693193313
aF0.37789381477983564
aF0.41469964058396785
aF0.4525462594935519
aF0.4928891355051465
aF0.5328560922918132
aF0.5697639208624804
aF0.6044064918968824
aF0.6142505573427831
aF0.6493317733136539
aF0.65172258609803
aF0.6387579275545949
aF0.6115857182602327
aF0.6413225385820213
aF0.6587550759333128
aF0.6703880443724327
aF0.690526537180801
aF0.7130571899640589
aF0.7414116288899538
aF0.7724614403369245
aF0.8034038177845377
aF0.8333053632354909
aF0.8616585138695658
aF0.8924977418089358
aF0.9109330453031258
aF0.934769532629522
aF0.9457591091814308
aF0.9570518219756831
aF0.9649699496047653
aF0.9736120969603115
aF0.9813964154183635
aF0.9900435748944086
aF0.9909672641763101
aF0.9920572512043675
aa(lp215
F0.3467740794163774
aF0.31986354072535755
aF0.33657541694515813
aF0.3851210098028169
aF0.4120421741512817
aF0.4527094141426164
aF0.49427909301363765
aF0.5371235185724099
aF0.5729526166782749
aF0.5987723910065507
aF0.6197687435405066
aF0.6295986230348287
aF0.6316785295836845
aF0.6031323825713764
aF0.6371206212470478
aF0.6373170205352833
aF0.6524981958402437
aF0.6672261681248659
aF0.6905776649085508
aF0.7176172629736944
aF0.748002260067854
aF0.7801827118110135
aF0.8116695884416075
aF0.8417963602503518
aF0.8699636446288109
aF0.8952244970929589
aF0.9164828281767107
aF0.9335565671156081
aF0.9475877161798417
aF0.9591747757291227
aF0.9700549365408846
aF0.9771625938595735
aF0.9840885379931819
aF0.9912617306084367
aF0.9915396198837216
aF0.9921795892673604
aa(lp216
F0.3376415705920985
aF0.3399579513086339
aF0.350923637144867
aF0.35535544995841556
aF0.4101783026912707
aF0.45045909081244506
aF0.49550640613445623
aF0.5401223419129221
aF0.5972468309076535
aF0.602589012756546
aF0.6155200275125573
aF0.6318828090350396
aF0.6226574396298012
aF0.6301786238133152
aF0.6355002910840476
aF0.6341449355282575
aF0.6264054378426702
aF0.6650235534868744
aF0.6918281209428462
aF0.7215941600700496
aF0.7538611380112368
aF0.7869704654355867
aF0.8187473563174202
aF0.848515363680984
aF0.8754994727427104
aF0.8996018163617544
aF0.9194139082243913
aF0.935105272871243
aF0.9503267006018811
aF0.9633757232151839
aF0.9723196381844534
aF0.9821058532107099
aF0.9859906162882909
aF0.989351940402777
aF0.9927460332065685
aF0.9936557341638649
aa(lp217
F0.33929808603151274
aF0.3414538717276176
aF0.3256341479044114
aF0.3656020293172906
aF0.3933386291159749
aF0.4515910248388833
aF0.4980515138051403
aF0.5447323222772417
aF0.5839740880489424
aF0.6077940412196415
aF0.6439979986779356
aF0.6351241080987297
aF0.6310968968796155
aF0.6260566863615528
aF0.6284957702778584
aF0.6138754507538955
aF0.6414928327487083
aF0.664330773499113
aF0.6958428976810263
aF0.7263402935386427
aF0.7589911715369992
aF0.792980702680414
aF0.8248349398472355
aF0.8539361648207214
aF0.8800499608338384
aF0.9030786250561369
aF0.9228702408637667
aF0.9394443226502175
aF0.9546483889061834
aF0.966438209543083
aF0.9750231147441258
aF0.9837644873617521
aF0.9879825125747311
aF0.9912274665990313
aF0.9892151641143977
aF0.9918913762765866
aa(lp218
F0.3459418740357159
aF0.33063483874250477
aF0.3061762904622183
aF0.36801104006376684
aF0.4145932124411926
aF0.4553030067596338
aF0.5020932915776083
aF0.5519306216966856
aF0.5914196240068433
aF0.6354099002689889
aF0.6308796082132915
aF0.6325191998572256
aF0.6334329735831266
aF0.6317640912495827
aF0.6253842216292699
aF0.6332899372202709
aF0.6215157674123153
aF0.6756148197694097
aF0.7027342565874594
aF0.7270117348863443
aF0.762498691059506
aF0.797296461037302
aF0.8295629550112759
aF0.8593248066652223
aF0.8837329210612066
aF0.9072961279993308
aF0.9259649429512345
aF0.9448607903093796
aF0.9593887208200339
aF0.9701840931223623
aF0.9785413437143923
aF0.9868862705298015
aF0.9907686154355343
aF0.9931812239964213
aF1.0
aF0.9948565735773026
aa(lp219
F0.3489287280036531
aF0.36410307367570377
aF0.33794399435780104
aF0.3774911510414957
aF0.42270334111354285
aF0.4625038035058348
aF0.5067692340984425
aF0.5554341045717025
aF0.636029237406661
aF0.6153232287909182
aF0.625628353303652
aF0.6186387935533034
aF0.6440309571313403
aF0.6065761010447729
aF0.5990782351010852
aF0.633935046358643
aF0.6541998860807797
aF0.6775480625132557
aF0.6776979886780792
aF0.7299668394383326
aF0.7655886041195266
aF0.8008130447051331
aF0.8333844614776201
aF0.8641269081965488
aF0.8887187458940268
aF0.911845231177488
aF0.9325155695248285
aF0.9514488543890876
aF0.9628435213613309
aF0.9754444500398981
aF0.9800705001244717
aF0.9860994276969182
aF0.9920757993931852
aF1.0
aF0.9971365858585203
aF0.9961612932720731
aa(lp220
F0.35242061496120436
aF0.3289660854805467
aF0.3427895065413496
aF0.38955410146827835
aF0.42779614122551496
aF0.4678832250621206
aF0.5095901663187985
aF0.5550408444975298
aF0.5906645454171371
aF0.6021601324354395
aF0.6400343254341561
aF0.6175691666799034
aF0.622947792888794
aF0.628992767967095
aF0.6114659483674059
aF0.6354212787744552
aF0.6589393904640106
aF0.6808847717632259
aF0.7037800614478363
aF0.7329826731847452
aF0.7686457436934279
aF0.8032688825601987
aF0.8359080580357691
aF0.8652789575444338
aF0.8915168328033788
aF0.9151343875193194
aF0.9349640199053323
aF0.9508557723957817
aF0.9626834837365156
aF0.9719844651594906
aF0.9799006097100328
aF0.9859456104042513
aF0.9931945936224481
aF1.0
aF1.0
aF1.0
aa(lp221
F0.3586036720431273
aF0.36154304995934833
aF0.3751053642256906
aF0.39977977390628944
aF0.43438585342645203
aF0.4720363225218461
aF0.5108247321985081
aF0.5483482553597648
aF0.5816922106856905
aF0.6299511820253045
aF0.6175939034982608
aF0.6224108922826245
aF0.6257358894509136
aF0.6308392370477126
aF0.6630013692852083
aF0.6479466938762326
aF0.6565292569442454
aF0.6847418502551337
aF0.7094294375173863
aF0.7394194093215343
aF0.7717826331878194
aF0.8050953023191371
aF0.8369954736462111
aF0.86590305326608
aF0.891560190965683
aF0.9133526313799155
aF0.9392547667163959
aF0.9451731349948139
aF0.9600063670249394
aF0.9698606309911778
aF0.9784360024486661
aF0.984323435502268
aF0.9925562061664057
aF1.0
aF0.9963960865825521
aF0.9984768240645581
aa(lp222
F0.37165931338729874
aF0.37849657257230523
aF0.3854533041475945
aF0.4058494565397583
aF0.43954062078530803
aF0.47503298252164233
aF0.510598701274434
aF0.5449744139376516
aF0.579470509905517
aF0.6006848656060279
aF0.616394425482165
aF0.6380502034468051
aF0.6273639259446374
aF0.598915233696975
aF0.6377704300944047
aF0.6534762888913236
aF0.6111872906616681
aF0.6783740121943284
aF0.7114175730001158
aF0.7419619646969816
aF0.7734660373789116
aF0.8055348037858064
aF0.8365544586910364
aF0.8647533009737948
aF0.8894856115397052
aF0.9107239470929205
aF0.9206359969565198
aF0.9491083172618425
aF0.930680363723372
aF0.9673780806283384
aF0.9747171962778162
aF0.9803473900600114
aF0.9875420717102658
aF1.0
aF1.0
aF0.997932681122616
aa(lp223
F0.3779515283460775
aF0.3816328842033763
aF0.359932675033888
aF0.4095651575884718
aF0.444313301725257
aF0.4763420098915217
aF0.5101493089611183
aF0.5427353338097419
aF0.5711438272724867
aF0.5950728832353893
aF0.6133210550797555
aF0.5988115958522594
aF0.6207172469869894
aF0.6290990001728577
aF0.6349524843482461
aF0.643282444128757
aF0.6583924057300777
aF0.6798300296111317
aF0.7124803436311545
aF0.74302577743394
aF0.7739873379647185
aF0.8052496621340319
aF0.8354397920235463
aF0.863100417931562
aF0.8875035314513483
aF0.9076285211860998
aF0.9297822518041193
aF0.9678892931116445
aF0.9566190220473428
aF0.9648651288949507
aF0.9723905020842252
aF0.9775284779842912
aF0.9722222222222222
aF0.990818749716199
aF0.9982187649219494
aF0.9985163774263978
aa(lp224
F0.3793947564763926
aF0.37773815624357354
aF0.3880497403113621
aF0.4093194799735511
aF0.4432383346044474
aF0.4767787186746774
aF0.5097596570551043
aF0.5413017059230918
aF0.5690571341933874
aF0.5921090630274477
aF0.6103828076999973
aF0.6143255261367302
aF0.6274896293360648
aF0.6301737380452215
aF0.6373776920023614
aF0.6478272888456789
aF0.6635899763826514
aF0.6859361829215821
aF0.7130070675369562
aF0.7430464972938753
aF0.7738037643498752
aF0.8048381593899979
aF0.8347330670128658
aF0.8622145673611832
aF0.8865217113857471
aF0.9076602402740837
aF0.923771533260072
aF0.947858280868217
aF0.9604007394687555
aF0.9639667928347642
aF0.971344463066682
aF0.975614914327238
aF0.9816951068806594
aF0.9899587545614813
aF0.9952042074795091
aF0.997508451109358
aaaa(lp225
(lp226
(lp227
F1.0
aF1.0
aF0.8959631129966937
aF0.8928127925795606
aF0.7319723016352258
aF0.6343450057751707
aF0.5491904003919568
aF0.47858409187583895
aF0.36177146463665943
aF0.251907078379379
aF0.13120634517751967
aF0.0
aF0.0
aF0.0
aF0.0
aF0.22728143758065344
aF0.38461649205993176
aF0.5247540421319358
aF0.6611343613227428
aF0.8036492662022872
aF1.0
aF1.0
aF1.0
aF1.0
aF1.0
aF0.8417002615134799
aF0.7256278166060313
aF0.6218215119999879
aF0.5238187003232433
aF0.4282373520217184
aF0.33136087377063717
aF0.22430489345230095
aF0.046633005311749506
aF0.0
aF0.0
aF0.0
aa(lp228
F1.0
aF0.9083463926905576
aF0.8582735294391322
aF0.7884326753979254
aF0.7132714190508946
aF0.625471266904333
aF0.5445057081056639
aF0.458762198309727
aF0.36636382306513604
aF0.2629484331146172
aF0.15077214303792605
aF0.0
aF0.0
aF0.0
aF0.13137196979417295
aF0.25491334293098245
aF0.39588070426264194
aF0.5279087122047905
aF0.6564300656699581
aF0.7876946851696114
aF0.9048801719447765
aF1.0
aF1.0
aF1.0
aF0.9362915680963352
aF0.8244143621839662
aF0.7183778498227468
aF0.6206259671658773
aF0.5273439200765608
aF0.4368534114236629
aF0.34677063140470293
aF0.2523212245598044
aF0.17029287622943254
aF0.11031545134636105
aF0.07475718357346298
aF0.0
aa(lp229
F0.8719355933362927
aF0.8453863228363828
aF0.7963991064329842
aF0.7413798319278859
aF0.6778525882972312
aF0.6093980553035082
aF0.5367049684700872
aF0.46032039592892976
aF0.37844361493749984
aF0.2898150386080301
aF0.19045661084820512
aF0.09300018346281998
aF0.0
aF0.08955637879932406
aF0.18971087826414504
aF0.3030546701441181
aF0.4185816133767071
aF0.5344333418315773
aF0.647089960451474
aF0.7556021025890932
aF0.8592789007049015
aF0.9873115920527308
aF1.0
aF0.9682682038576647
aF0.8746778366219595
aF0.7907850789710058
aF0.703213846557127
aF0.6178352460703551
aF0.5353252727722932
aF0.4515120943209494
aF0.37880579083628624
aF0.3076212080759541
aF0.24561218364686566
aF0.1969874290808428
aF0.15783541650406008
aF0.1407359875995737
aa(lp230
F0.7968911080003821
aF0.78121638909592
aF0.7472032767748948
aF0.7021600436086822
aF0.6508145481131932
aF0.5944235869547003
aF0.5338806369518495
aF0.4692295218636986
aF0.4005208801311053
aF0.3263134509209436
aF0.24776561351921048
aF0.16288886177579082
aF0.0
aF0.1625857341807407
aF0.253930235709021
aF0.3489455011490547
aF0.4460743238409745
aF0.542158318155738
aF0.6352743504797526
aF0.7253589764044411
aF0.8130989846252902
aF0.8869532145855447
aF1.0
aF0.8899267549868606
aF0.8256473863354614
aF0.7548563518671952
aF0.6838935527459302
aF0.6134719602684601
aF0.5445915311304287
aF0.4785017250749634
aF0.4162757711720619
aF0.36011923519303873
aF0.3116524352919428
aF0.2726974198817587
aF0.24577623188237094
aF0.23403897717768699
aa(lp231
F0.7459626495909178
aF0.7330922180392635
aF0.7048381434148103
aF0.6696413422494465
aF0.6289150615346465
aF0.5840122212305944
aF0.535446950001312
aF0.48364700079095063
aF0.4287747229585011
aF0.37086099810779477
aF0.3109444621696546
aF0.2484240464542836
aF0.2279473782018142
aF0.25095356027422716
aF0.3214654692153079
aF0.39647728628645645
aF0.4735397997673723
aF0.5496792257026568
aF0.6232347756949913
aF0.6944641816908507
aF0.7600594147824481
aF0.8186436192682712
aF0.8389471043248542
aF0.8237830765275839
aF0.7732217912090263
aF0.7194047599110288
aF0.6633983153569308
aF0.607860732789767
aF0.5534360218202963
aF0.5012011566297331
aF0.4524754695459994
aF0.4086951113434549
aF0.37135191360938163
aF0.3420062953992804
aF0.32232038331409046
aF0.3140897323836343
aa(lp232
F0.72106168146494
aF0.6903732858680716
aF0.668059629426053
aF0.6414057727166677
aF0.6109242224770184
aF0.5771567452553782
aF0.5404820479483585
aF0.5015223897186183
aF0.46069882984104016
aF0.4185628757046685
aF0.37715614501715417
aF0.3453375588164631
aF0.33359641285677255
aF0.35047346834045423
aF0.39040059826097284
aF0.4438614644153555
aF0.5003286303981466
aF0.5565863053818015
aF0.6109587151910284
aF0.6633559849257291
aF0.7108725917399662
aF0.7466740251844485
aF0.7612823687151344
aF0.751223026918439
aF0.7218109802428404
aF0.6832487265464561
aF0.6420665111417182
aF0.600927383513874
aF0.5603188423670828
aF0.5214013024458888
aF0.485198032407358
aF0.4528538105125823
aF0.42554996391949623
aF0.4044501387825729
aF0.39061002905749165
aF0.3849121075818218
aa(lp233
F0.6582640827773906
aF0.6505021421773077
aF0.6340818758223544
aF0.6157054780832655
aF0.5949755434722835
aF0.5721658427445809
aF0.5473960022787857
aF0.5213207587605603
aF0.494372181458558
aF0.4672877691491917
aF0.44243800289628793
aF0.4246010962433442
aF0.4196133527433586
aF0.4303909385259999
aF0.45507448069630235
aF0.48837222424955734
aF0.5251833442325607
aF0.5624689694317905
aF0.5985900037288622
aF0.6332959334098617
aF0.6638892667112185
aF0.6870143972801782
aF0.6959943507066986
aF0.6903232422923673
aF0.6717215418897496
aF0.6472977063707156
aF0.6201343827469517
aF0.5927994125734745
aF0.5655484176717882
aF0.5394146749022126
aF0.5151779802695936
aF0.49364327259890123
aF0.47565842334055813
aF0.4618879985575053
aF0.45296018884671846
aF0.44928946323162605
aa(lp234
F0.6141742339896893
aF0.6102180994527373
aF0.6019010171985953
aF0.5916616157759802
aF0.5804317748983879
aF0.5683271903184678
aF0.5553108366792984
aF0.5418811216007731
aF0.5283731067691432
aF0.5153378326521442
aF0.5039809266249201
aF0.49653102758478207
aF0.4952991012242232
aF0.5012537052698701
aF0.5134928397680697
aF0.529918394120569
aF0.5484716409207936
aF0.5675824345814927
aF0.5860249200305855
aF0.6036115757189776
aF0.6189028980428738
aF0.6306908008261768
aF0.6352284637941595
aF0.6326160992033167
aF0.6232946711642636
aF0.6112194148561897
aF0.5975288829885805
aF0.5836375334674119
aF0.5695426145666098
aF0.5559345625448374
aF0.5432774345437675
aF0.5320708051080086
aF0.5228262000751197
aF0.5157384691303294
aF0.5111232220194492
aF0.509166723602057
aa(lp235
F0.573652268118963
aF0.5725570178602167
aF0.5703962465737237
aF0.5682644810744263
aF0.5663953994042946
aF0.5648057914798152
aF0.5633628096967546
aF0.5623300689859309
aF0.5619655421587768
aF0.5625932305590707
aF0.5642575961977995
aF0.5664653324227581
aF0.5682388745874993
aF0.568959840934704
aF0.5690304814073409
aF0.5693323266227449
aF0.5704271979186606
aF0.5718513532640396
aF0.5729332699523165
aF0.5737620541528304
aF0.5744101503160376
aF0.5756184549617308
aF0.5761759072593349
aF0.5764280893553558
aF0.5756745482825881
aF0.5751568917200421
aF0.574481926449896
aF0.5738854600745734
aF0.5729083217368028
aF0.5717262129379382
aF0.5704217016037484
aF0.5692431520914775
aF0.56846132538145
aF0.5678683121736359
aF0.5674973735819141
aF0.5672288875309809
aa(lp236
F0.5331305070153084
aF0.5346915454721075
aF0.5384682600947769
aF0.5442577892929209
aF0.5516855963208872
aF0.560522886813606
aF0.5705577645113161
aF0.5818157086197223
aF0.5944249623055486
aF0.6088417143918919
aF0.6241172379367695
aF0.638464595473888
aF0.6438826932112162
aF0.6392438450457273
aF0.6248419981642833
aF0.6082332598351741
aF0.5913809530593102
aF0.5762509083296675
aF0.5586521733393148
aF0.5426958407402253
aF0.5287065469229827
aF0.5191599993390873
aF0.515852808720508
aF0.5190551780529215
aF0.5272579535479575
aF0.5385256453441599
aF0.5511339052477687
aF0.564099278441383
aF0.5763971108301393
aF0.5876979110469102
aF0.597542940932455
aF0.6060084527264166
aF0.6132862108497926
aF0.6191962039728808
aF0.6234003412086118
aF0.6251178516118726
aa(lp237
F0.49042653396952546
aF0.4946960082042327
aF0.50452586421111
aF0.5184555837412719
aF0.5353548243691847
aF0.5547381639470617
aF0.5762346192798636
aF0.5997008528356411
aF0.625095672301776
aF0.6534080339009712
aF0.6829184123190032
aF0.7096088342652783
aF0.7402258041060015
aF0.7106394208963352
aF0.6820607145021831
aF0.6471703656404322
aF0.6113346934092663
aF0.5768315371959335
aF0.5427342158218463
aF0.5095665921912539
aF0.48025652630599164
aF0.4598090297320225
aF0.447801801004397
aF0.4593580541943354
aF0.4771431064012705
aF0.5012813072435597
aF0.5278580400414495
aF0.554818052968904
aF0.5804995224247601
aF0.6041289987234437
aF0.6249046063045854
aF0.642825533017218
aF0.6581921869998412
aF0.6709548105798594
aF0.6802751857417565
aF0.6843276539092514
aa(lp238
F0.44361923132434483
aF0.4507766347789233
aF0.46705923765354784
aF0.48972551802173464
aF0.5166035220752114
aF0.5468580242051512
aF0.5798551614498787
aF0.615394525925919
aF0.6532987223953197
aF0.6951551347328989
aF0.7385834252185116
aF0.7777304328619211
aF0.7992108449926528
aF0.7862167397060826
aF0.7442658873316977
aF0.685904893387235
aF0.6305299898772403
aF0.5773633705347766
aF0.5249643070217577
aF0.4736327338710156
aF0.42738602754332006
aF0.39163067786003425
aF0.3797058183887256
aF0.3914670622109771
aF0.42385895856838335
aF0.46307033462891184
aF0.5050478515267712
aF0.5467466992302183
aF0.5860756952914602
aF0.621974806533797
aF0.6534942702890992
aF0.6807043044561004
aF0.7040587563377495
aF0.7238061483020415
aF0.7383903535148938
aF0.7449547643883844
aa(lp239
F0.39045886256817336
aF0.4008937907525229
aF0.42460707661979274
aF0.4572792751392602
aF0.49537783423898357
aF0.5371525317694199
aF0.5817075973330472
aF0.6288232018497816
aF0.6785921937151209
aF0.7326620218376063
aF0.7882908353332042
aF0.8368786424130955
aF0.8644693313850375
aF0.907341016738603
aF0.799056259516321
aF0.7244462854335078
aF0.6501334073395991
aF0.5780092003123353
aF0.5065768323236357
aF0.4361086105434561
aF0.37022951555598654
aF0.3166661117785692
aF0.26943366084967096
aF0.31624049670711446
aF0.36598329466297735
aF0.4238862530796612
aF0.4830862784839403
aF0.5405776910841946
aF0.5940281199167537
aF0.6422604310135663
aF0.6852318356887698
aF0.720911090442542
aF0.7522518240202155
aF0.7795097574788491
aF0.797671846410172
aF0.806194957894444
aa(lp240
F0.3291349122843591
aF0.3437443031012271
aF0.37675518522342816
aF0.4213299677320726
aF0.47202156628992037
aF0.5256934319439597
aF0.5815341859741698
aF0.6394609022418986
aF0.7002883308526102
aF0.7650408594498885
aF0.8302625926918351
aF0.8889570606032002
aF0.9254379573853263
aF0.9110570550648417
aF0.8516995159239383
aF0.7609701559784737
aF0.6703901507701348
aF0.579551596981381
aF0.488460282756973
aF0.39788360989856436
aF0.31124097093444475
aF0.2283219799721403
aF0.17503794638463743
aF0.22690584677182737
aF0.3053942463785865
aF0.38374470055488724
aF0.4621280285291765
aF0.5369041442400665
aF0.605445260923897
aF0.666559443415032
aF0.7195225067893989
aF0.7648397419139957
aF0.8034818312360499
aF0.8353769074132874
aF0.8579679022285932
aF0.8678336483021379
aa(lp241
F0.25573663841622135
aF0.27736353525512003
aF0.32419196722063953
aF0.3835654918711667
aF0.4477781996465286
aF0.5133048254248164
aF0.5795799128190774
aF0.6471137076060378
aF0.7177277008794548
aF0.7914440093985049
aF0.8661016934668972
aF0.9288520585990511
aF1.0
aF1.0
aF0.8882754477197575
aF0.7954758948365069
aF0.6927351184832146
aF0.5843515800750666
aF0.47284626568091825
aF0.361415467090248
aF0.25165572340508363
aF0.15098840953796458
aF0.0
aF0.15061086951285335
aF0.24560042739724774
aF0.34346077725758284
aF0.4420950853764493
aF0.5357255203102329
aF0.6208956905983527
aF0.6959667066989317
aF0.7597672490403994
aF0.8128173452419563
aF0.8563285853527698
aF0.8940197054277976
aF0.9196497291574666
aF0.935102026959484
aa(lp242
F0.1511085742441615
aF0.2000917842303178
aF0.27211920481140905
aF0.3483765938828596
aF0.42630970621047237
aF0.5015706188399887
aF0.5763103771369793
aF0.651245242827193
aF0.7294610722289699
aF0.8128402451014823
aF0.8950297663662748
aF0.9846824579536607
aF1.0
aF1.0
aF0.9204051856547376
aF0.8284551856369022
aF0.7185978489777148
aF0.5946760809284554
aF0.4619300409068763
aF0.3284969802236836
aF0.1966492959432996
aF0.05820395941048362
aF0.0
aF0.08664965837674828
aF0.1874160188412574
aF0.30421551322906365
aF0.4226815942378687
aF0.5358976259800795
aF0.6393815053345473
aF0.7304950475245624
aF0.8066960677556484
aF0.8648578353629026
aF0.910023130729488
aF0.9447194288057341
aF1.0
aF1.0
aa(lp243
F0.0
aF0.129323427766775
aF0.22142274316641716
aF0.322717466222511
aF0.411444794354558
aF0.49346074130947465
aF0.5729984989306701
aF0.6539083205143476
aF0.7342398365210233
aF0.8220327032953976
aF0.9361841015071912
aF1.0
aF1.0
aF1.0
aF0.9520595922963571
aF0.8710998802901008
aF0.754141696507309
aF0.6117759573652651
aF0.46282277105377295
aF0.29726781641124167
aF0.1450369410142583
aF0.0
aF0.0
aF0.0
aF0.13322649933937644
aF0.26215194793776136
aF0.4067721219857617
aF0.5363567874224909
aF0.6545836696258304
aF0.7729066212193422
aF0.8645106273652751
aF0.9276573993495201
aF0.9576950568564899
aF1.0
aF1.0
aF1.0
aa(lp244
F0.0
aF0.0
aF0.20693170078726733
aF0.3165510550841531
aF0.4086329728396547
aF0.4919671726119463
aF0.5714205068656822
aF0.6501065564898115
aF0.7319594361622058
aF0.8198774702212442
aF0.9101468324075525
aF1.0
aF1.0
aF1.0
aF1.0
aF1.0
aF0.7639888215424716
aF0.6205637199085395
aF0.50668247370082
aF0.2965179473876201
aF0.0
aF0.0
aF0.0
aF0.0
aF0.0
aF0.24304931930423013
aF0.4062829855997932
aF0.5317211916349924
aF0.6633155026575207
aF0.7869439620866171
aF1.0
aF1.0
aF1.0
aF1.0
aF1.0
aF1.0
aa(lp245
F0.0
aF0.13764276024054775
aF0.22922064940260986
aF0.33080204190009593
aF0.41982334476386224
aF0.49657278823924383
aF0.571984416546138
aF0.6465904136609283
aF0.7236250082695004
aF0.8043670256319264
aF0.8915669312881432
aF1.0
aF1.0
aF1.0
aF0.9360714638545522
aF0.8594043615656527
aF0.7512763477295318
aF0.6184623492272533
aF0.47815253125531537
aF0.3208091130584259
aF0.17691665820363567
aF0.0
aF0.0
aF0.027777777777777776
aF0.1681288768215572
aF0.28808017005434117
aF0.42360578184112246
aF0.5464948038277447
aF0.6604499226145016
aF0.7756566380059114
aF0.8641838865747347
aF0.9226374136884776
aF0.945041032918892
aF0.9609630321511253
aF1.0
aF1.0
aa(lp246
F0.18203707421082738
aF0.21612418351982252
aF0.28701764660263024
aF0.36150721422834753
aF0.43565591470075327
aF0.5061155795657571
aF0.5741806686235122
aF0.6417418905812665
aF0.7105443198018119
aF0.7820705819661375
aF0.8588092867681266
aF0.9496322403864501
aF1.0
aF0.9280310618538402
aF0.8763370631256988
aF0.8035206848576784
aF0.7118925475625791
aF0.6058823909801125
aF0.4894054109167856
aF0.3725344927424443
aF0.25964954174393823
aF0.18130645510023036
aF0.14329146006235435
aF0.18275172748472257
aF0.25454544405943963
aF0.35219468732672327
aF0.4542176126476953
aF0.5554913080020232
aF0.6510099829880965
aF0.7360401397767694
aF0.8063400394957075
aF0.8564354700108906
aF0.8896404605285482
aF0.9129905474517749
aF0.9282669855063749
aF0.9361178484093612
aa(lp247
F0.27909228878228287
aF0.29981768737965386
aF0.34386835104807484
aF0.3995401716627794
aF0.4583522008807231
aF0.5173824637965753
aF0.5762823267546894
aF0.6347539184399773
aF0.6934574420829983
aF0.7533218359834861
aF0.8139445706411834
aF0.8652644779201842
aF0.8851364269895341
aF0.8692860079871844
aF0.8212407037488013
aF0.7586313787756799
aF0.6826442765724957
aF0.5978399434821906
aF0.5080107538979171
aF0.4194421371285903
aF0.3413867471387532
aF0.2820916875693727
aF0.2621142524708748
aF0.2809307029194965
aF0.33619009862033805
aF0.40647803960884005
aF0.484795436334609
aF0.5634563606725379
aF0.6379948813285594
aF0.7045457267426709
aF0.7602512254990869
aF0.803540119315346
aF0.8351456282054368
aF0.8567721062920172
aF0.8701967093698832
aF0.8755686929584502
aa(lp248
F0.3537089463218733
aF0.36728217195105706
aF0.3974789526830786
aF0.437495364435683
aF0.48238576429555247
aF0.5293724374883176
aF0.5774809419368014
aF0.6257440622078342
aF0.6736401628283245
aF0.7211937114290258
aF0.7658758520949682
aF0.8010116787674341
aF0.8160041587942933
aF0.8050767023515436
aF0.7702913537365131
aF0.719733773429183
aF0.6599629282418529
aF0.5949705455794584
aF0.5278983906395948
aF0.463277868274717
aF0.4068368870993549
aF0.36379455644523784
aF0.3152986658531932
aF0.36246854033841447
aF0.40274786550712016
aF0.4542089391004371
aF0.5119107741567385
aF0.5708774490343799
aF0.6274356036182477
aF0.6786039755723321
aF0.7223851567227825
aF0.7577734972165512
aF0.7846774246197389
aF0.8036980943580795
aF0.8152975436036347
aF0.8199348591341136
aa(lp249
F0.4140926475000161
aF0.4229949001131961
aF0.4433400650433064
aF0.4714383546730126
aF0.504390123997216
aF0.5401226310160369
aF0.5774591323090191
aF0.6152555797111238
aF0.6525600242898343
aF0.688631344671507
aF0.7211267663832065
aF0.745801291615367
aF0.7560287038010918
aF0.7483021284315576
aF0.7233930528007698
aF0.6866126710491076
aF0.6427743278781031
aF0.5954105885249293
aF0.5473360554303665
aF0.5018160385800191
aF0.4628412565218973
aF0.4323748599636453
aF0.42221787083222506
aF0.4313215974452524
aF0.45983063054744694
aF0.49542134256003484
aF0.5361684600109223
aF0.5786048909078189
aF0.6199690593017406
aF0.6579367349953209
aF0.690927260821018
aF0.7181665015821035
aF0.739340288417237
aF0.7546094154520272
aF0.7640110091121688
aF0.7677798552318963
aa(lp250
F0.4639033832516514
aF0.46942710625206097
aF0.48239335808227984
aF0.5010699275533944
aF0.5238465432985003
aF0.5493135213116558
aF0.5763938686486068
aF0.6040659990966715
aF0.6313123073874586
aF0.6570811039491037
aF0.6794700290593693
aF0.6957729741233578
aF0.7024538515288165
aF0.6976575749025016
aF0.6818319376445511
aF0.6578004243473154
aF0.6286018240841252
aF0.5968700252114191
aF0.5650042768991326
aF0.5355046753864151
aF0.5109776814638217
aF0.4944672576440947
aF0.48834212046871484
aF0.49378619794816164
aF0.5090732079854686
aF0.5315336022536161
aF0.5581307251038202
aF0.5865904800368481
aF0.6148334172377259
aF0.6411414005231834
aF0.6643226376908392
aF0.6837088345410037
aF0.6989703830015818
aF0.7100526113454387
aF0.7169314325749254
aF0.7196836888786949
aa(lp251
F0.5059582209149337
aF0.5089204816735222
aF0.5161025332641326
aF0.5269682856479844
aF0.5408415808725019
aF0.5569167056354528
aF0.5743774315632549
aF0.5924015373669275
aF0.6101449302253571
aF0.6266644902209345
aF0.6406867841081497
aF0.6506972275150537
aF0.6551449785207514
aF0.6532267589485774
aF0.6451792713628423
aF0.6322108705094784
aF0.6159459666680127
aF0.598088481101717
aF0.5804093949618104
aF0.5647283245120589
aF0.5525933037678453
aF0.5451076596003337
aF0.5425743944772097
aF0.5450860614821351
aF0.5522901952701139
aF0.5637272528176328
aF0.5782786256435716
aF0.5945805994595199
aF0.6111519193594147
aF0.6268219025274432
aF0.6407732980740447
aF0.6525221300122331
aF0.6617943920385306
aF0.6684772088319307
aF0.6725630050597449
aF0.6741699218092944
aa(lp252
F0.5431863405528744
aF0.5440269391617849
aF0.5463154473592408
aF0.5503158422579926
aF0.5560928279620924
aF0.5633764486620867
aF0.5716704221249566
aF0.5804024469306991
aF0.5890082353301768
aF0.5968604691288953
aF0.6033844496159484
aF0.6081157132227187
aF0.6109513290978716
aF0.6118472438782111
aF0.6108431461886233
aF0.6079462893673435
aF0.6035672265144184
aF0.598490641149604
aF0.5937682592780034
aF0.5905479599922345
aF0.5892158123547132
aF0.5895456340864534
aF0.5901806612668518
aF0.5907493618101108
aF0.5914469382977138
aF0.5935068635326645
aF0.597251870419888
aF0.6024116290614412
aF0.608172179958342
aF0.6138298392296274
aF0.6189274916529998
aF0.6231996647017372
aF0.6264612631080806
aF0.6286343207930695
aF0.6297443058234898
aF0.6301163086923925
aa(lp253
F0.5774645113728097
aF0.5764174716747026
aF0.5742938198672976
aF0.5719597723997357
aF0.5701186418014896
aF0.5689914231284383
aF0.5684163077525568
aF0.5680808754664408
aF0.567734849652274
aF0.5670590176310338
aF0.5661863706356426
aF0.5656617261849561
aF0.5669043019637257
aF0.5705993730384797
aF0.5766046100668312
aF0.5836039080602559
aF0.5907856899106787
aF0.5980113109546267
aF0.6057199043418837
aF0.614480695138789
aF0.6236648021811554
aF0.6317444289735666
aF0.635754540624772
aF0.634681646941703
aF0.6292547728400536
aF0.6222488740622155
aF0.6155446787204903
aF0.609909618406485
aF0.605237770843941
aF0.6011756919720396
aF0.5975928647365832
aF0.5944211806314733
aF0.5915738594388124
aF0.5890452329802651
aF0.5869524479077336
aF0.5859694577365681
aa(lp254
F0.610433528358232
aF0.6075643182070355
aF0.6011766571174871
aF0.5927037284750312
aF0.5834447504431689
aF0.574076535607298
aF0.5647527213019746
aF0.5554138200255051
aF0.5461207498322308
aF0.5367435404689319
aF0.528086063787454
aF0.5217231858056006
aF0.520994121471073
aF0.5274862904805203
aF0.5408964391548651
aF0.5581932280643453
aF0.5771638336435493
aF0.5967311697162582
aF0.6169530046455239
aF0.6380392282732537
aF0.6584446714693359
aF0.675090983413804
aF0.6829965474005172
aF0.6801496269239923
aF0.6679997362604793
aF0.6511912939024805
aF0.6335652959596579
aF0.6169244745862862
aF0.6018235277594296
aF0.5880819064805096
aF0.5758326276072131
aF0.5651591911298118
aF0.5561741959594989
aF0.5490217045563471
aF0.5439260092606933
aF0.5417124834213937
aa(lp255
F0.6440661468725506
aF0.6391905318793492
aF0.6282156868854266
aF0.613380220868497
aF0.596608014761084
aF0.5789780675304325
aF0.5608631051274263
aF0.5424350767181926
aF0.5240499546018524
aF0.5057625424871636
aF0.48913912125904435
aF0.47683168820998995
aF0.4741685378366968
aF0.483472688165591
aF0.5042960722520161
aF0.5318472730341096
aF0.5626820861623192
aF0.5947962788038647
aF0.6279683996592663
aF0.6622606227735693
aF0.6951155599106399
aF0.7215816078825735
aF0.7336583862177078
aF0.7282320069171511
aF0.7077219741351978
aF0.6798186394760969
aF0.6505830375513683
aF0.6228680810638556
aF0.597358293026924
aF0.5739226827235927
aF0.5528869496324212
aF0.5345431477667715
aF0.5192946691893972
aF0.5075155544280531
aF0.49956005544676024
aF0.49621667483004656
aa(lp256
F0.6802406759358327
aF0.6729787123928496
aF0.6567171139466051
aF0.6349182234356553
aF0.6102544133958098
aF0.5841502449853432
aF0.5570554452742558
aF0.529318445653101
aF0.5015611904952768
aF0.4741436258070973
aF0.44948282867309386
aF0.43138787501841375
aF0.426892723664459
aF0.43895490156647266
aF0.4669448789022677
aF0.5046106372110069
aF0.547359684868492
aF0.5922816009879677
aF0.6387766823076345
aF0.6868316493829257
aF0.7338126487916966
aF0.7716654037315237
aF0.7888290874672945
aF0.7790365919445139
aF0.7480075128781029
aF0.707230911020036
aF0.6660866105347897
aF0.6273562056149582
aF0.5914349299834764
aF0.558187674335275
aF0.528095719586759
aF0.5017296648227701
aF0.47991128065668315
aF0.46335071770654546
aF0.45258382912911627
aF0.44817184956081196
aa(lp257
F0.7208984849768666
aF0.7106807288329865
aF0.6880691380603902
aF0.6583719380056098
aF0.6251872350492423
aF0.5902265105868478
aF0.5538254087831903
aF0.5164369508550838
aF0.47887657895951863
aF0.44190395480372374
aF0.40896360649530167
aF0.38487445795708997
aF0.3784427694209251
aF0.39303281312285193
aF0.4283434712958953
aF0.476316993026088
aF0.5313035158465381
aF0.5891750312597565
aF0.6490724820056983
aF0.7106883913462291
aF0.771329417745406
aF0.8301669852870116
aF0.8516038202408844
aF0.8367950981028418
aF0.7847899644512992
aF0.7316335955938796
aF0.6792633916326832
aF0.630023005003339
aF0.5838137851147239
aF0.5406066631355153
aF0.501055837887909
aF0.4661075313541707
aF0.43704481581070637
aF0.41501250640346554
aF0.4008620124680505
aF0.39511493415707327
aa(lp258
F0.7654006362491913
aF0.7521139100774753
aF0.7228514990305891
aF0.6847679536990238
aF0.6424614545632951
aF0.5980573507500696
aF0.5518548120863065
aF0.5043666339591911
aF0.45642235381326746
aF0.40913807582639833
aF0.3669688450999892
aF0.33581515836932146
aF0.3235899042679449
aF0.3408974175118456
aF0.384363237703021
aF0.44677496396283695
aF0.5144665999934237
aF0.5854054198510692
aF0.6584037488874016
aF0.7329511417993094
aF0.8061950635786111
aF0.8756730249976075
aF1.0
aF0.8791517483923988
aF0.8159898460952674
aF0.7523618495086583
aF0.6903268005607637
aF0.6311534032281437
aF0.5747898312912776
aF0.5214737821120253
aF0.4720681681057039
aF0.4278284267806462
aF0.3905069174138916
aF0.36178055017569544
aF0.34314736839804155
aF0.33551583782534483
aa(lp259
F0.8139484882319906
aF0.797905387356994
aF0.7624535449741545
aF0.7158306391402222
aF0.6636928097125777
aF0.6088029257863271
aF0.5520457657609259
aF0.49386086485986463
aF0.4347344595917126
aF0.37560744862227685
aF0.3209115217616156
aF0.2798619625986465
aF0.2570787214963942
aF0.2531546780786003
aF0.33901390778723384
aF0.4151508928016014
aF0.4966879166554102
aF0.5815014314175905
aF0.6678812184719237
aF0.754707743572479
aF0.841746764453786
aF0.9191788456857425
aF0.961066405582888
aF0.9124539202201575
aF0.841740179208479
aF0.7702843403543818
aF0.7000223760973099
aF0.631465072347292
aF0.5652213849762545
aF0.5019719709557752
aF0.4425940633755941
aF0.3884326456208571
aF0.34158285395921634
aF0.3041302778556651
aF0.2789314366855088
aF0.2682293997308498
aa(lp260
F0.8665183570862766
aF0.8481669576662519
aF0.8068866122329026
aF0.751231833421853
aF0.6882693596682855
aF0.6220068296531873
aF0.554487897521023
aF0.4856444835079759
aF0.41522039337394495
aF0.34223912012988483
aF0.2714976354811901
aF0.20583720862454535
aF0.1813286872456535
aF0.21053790550848386
aF0.2882076990422917
aF0.3802477339034776
aF0.47775470125958625
aF0.5776916507040459
aF0.6788063753574368
aF0.7778715181686624
aF0.8741256436993794
aF0.9895917656498835
aF1.0
aF0.9296532348244763
aF0.8641680986106758
aF0.7889696560837324
aF0.7101152299357962
aF0.6317939500969372
aF0.5565125919141477
aF0.4843017514063878
aF0.4156993669710222
aF0.35150704066030275
aF0.29366205909949566
aF0.24457146637654062
aF0.2070913276883181
aF0.19033219165065293
aa(lp261
F0.9290639947001859
aF0.9076334269744328
aF0.8577221648352403
aF0.7876023892153649
aF0.7110625562706073
aF0.6346261321645826
aF0.5580034158822896
aF0.48048067800586364
aF0.40057775243137056
aF0.3146065766851829
aF0.21754667873138675
aF0.13183794368033225
aF0.0
aF0.13642444095463732
aF0.22783390171973614
aF0.34235075996716935
aF0.4566396134898261
aF0.5750182802604834
aF0.6898704746203297
aF0.8071730372561468
aF0.908785163328583
aF0.9943392040694996
aF1.0
aF0.9611500886910639
aF0.8978775415645707
aF0.8158044131719024
aF0.7194720123571865
aF0.6325226885985836
aF0.5502175617381379
aF0.4712971286405894
aF0.3956398008751801
aF0.32316879119203534
aF0.251716915952864
aF0.18541445073919785
aF0.13098845705574222
aF0.08078922729350958
aa(lp262
F1.0
aF1.0
aF0.9233699591792056
aF0.8061235823794333
aF0.7225241490187847
aF0.6409890466219837
aF0.5600096451726155
aF0.47838738250766594
aF0.39383216825953515
aF0.30113871442745055
aF0.19067646030195634
aF0.0
aF0.0
aF0.0
aF0.18129704550337095
aF0.28139393258277906
aF0.445857697358611
aF0.5736782856796714
aF0.6958841271443765
aF0.8224118562378704
aF1.0
aF1.0
aF1.0
aF1.0
aF1.0
aF0.8302478004165998
aF0.7245822765662427
aF0.632994563738412
aF0.5474914069950518
aF0.465580901382824
aF0.3867439586468069
aF0.31026571906577793
aF0.23173603748153707
aF0.11911803473872036
aF0.03887864763621042
aF0.0
aaaa.